
Car_main_controller.elf:     file format elf32-avr

Sections:
Idx Name          Size      VMA       LMA       File off  Algn
  0 .text         00000138  00000000  00000000  00000074  2**1
                  CONTENTS, ALLOC, LOAD, READONLY, CODE
  1 .data         00000000  00800060  00800060  0000069a  2**0
                  ALLOC, LOAD, DATA
  2 .comment      0000002f  00000000  00000000  0000069a  2**0
                  CONTENTS, READONLY
  3 .stack.descriptors.hdr 0000002a  00000000  00000000  000006c9  2**0
                  CONTENTS, READONLY
  4 .debug_aranges 00000110  00000000  00000000  000006f3  2**0
                  CONTENTS, READONLY, DEBUGGING
  5 .debug_info   00001ad3  00000000  00000000  00000803  2**0
                  CONTENTS, READONLY, DEBUGGING
  6 .debug_abbrev 000008bf  00000000  00000000  000022d6  2**0
                  CONTENTS, READONLY, DEBUGGING
  7 .debug_line   00000997  00000000  00000000  00002b95  2**0
                  CONTENTS, READONLY, DEBUGGING
  8 .debug_frame  00000200  00000000  00000000  0000352c  2**2
                  CONTENTS, READONLY, DEBUGGING
  9 .debug_str    0000023c  00000000  00000000  0000372c  2**0
                  CONTENTS, READONLY, DEBUGGING
 10 .debug_loc    00000a9d  00000000  00000000  00003968  2**0
                  CONTENTS, READONLY, DEBUGGING
 11 .debug_ranges 000000d0  00000000  00000000  00004405  2**0
                  CONTENTS, READONLY, DEBUGGING
 12 .text         00000004  00000618  00000618  0000068c  2**1
                  CONTENTS, ALLOC, LOAD, READONLY, CODE
 13 .note.gnu.avr.deviceinfo 0000003c  00000000  00000000  000044d8  2**2
                  CONTENTS, READONLY, DEBUGGING
 14 .text.DIO_Setpindir 000000e0  000002fc  000002fc  00000370  2**1
                  CONTENTS, ALLOC, LOAD, READONLY, CODE
 15 .text.DIO_Writepin 000000e0  000003dc  000003dc  00000450  2**1
                  CONTENTS, ALLOC, LOAD, READONLY, CODE
 16 .text.LED_Init 00000008  000005f0  000005f0  00000664  2**1
                  CONTENTS, ALLOC, LOAD, READONLY, CODE
 17 .text.LED_On  00000008  000005f8  000005f8  0000066c  2**1
                  CONTENTS, ALLOC, LOAD, READONLY, CODE
 18 .text.LED_Off 00000008  00000600  00000600  00000674  2**1
                  CONTENTS, ALLOC, LOAD, READONLY, CODE
 19 .progmemx.data 000001c4  00000138  00000138  000001ac  2**0
                  CONTENTS, ALLOC, LOAD, READONLY, PROGMEMX
 20 .text.main    0000005e  000004bc  000004bc  00000530  2**1
                  CONTENTS, ALLOC, LOAD, READONLY, CODE
 21 .text.UART_Init 00000044  0000051a  0000051a  0000058e  2**1
                  CONTENTS, ALLOC, LOAD, READONLY, CODE
 22 .text.UART_Send_data 00000008  00000608  00000608  0000067c  2**1
                  CONTENTS, ALLOC, LOAD, READONLY, CODE
 23 .text.UART_Receive_data 00000008  00000610  00000610  00000684  2**1
                  CONTENTS, ALLOC, LOAD, READONLY, CODE
 24 .text.UART_Send_string 0000002c  000005a2  000005a2  00000616  2**1
                  CONTENTS, ALLOC, LOAD, READONLY, CODE
 25 .text.libgcc.div 00000044  0000055e  0000055e  000005d2  2**1
                  CONTENTS, ALLOC, LOAD, READONLY, CODE
 26 .text.libgcc  0000000c  000005e4  000005e4  00000658  2**1
                  CONTENTS, ALLOC, LOAD, READONLY, CODE
 27 .text.__dummy_fini 00000002  00000620  00000620  00000694  2**1
                  CONTENTS, ALLOC, LOAD, READONLY, CODE
 28 .text.__dummy_funcs_on_exit 00000002  00000622  00000622  00000696  2**1
                  CONTENTS, ALLOC, LOAD, READONLY, CODE
 29 .text.__dummy_simulator_exit 00000002  00000624  00000624  00000698  2**1
                  CONTENTS, ALLOC, LOAD, READONLY, CODE
 30 .text.exit    00000016  000005ce  000005ce  00000642  2**1
                  CONTENTS, ALLOC, LOAD, READONLY, CODE
 31 .text._Exit   00000004  0000061c  0000061c  00000690  2**1
                  CONTENTS, ALLOC, LOAD, READONLY, CODE

Disassembly of section .text:

00000000 <__vectors>:
   0:	0c 94 72 00 	jmp	0xe4	; 0xe4 <__ctors_end>
   4:	0c 94 0c 03 	jmp	0x618	; 0x618 <__bad_interrupt>
   8:	0c 94 0c 03 	jmp	0x618	; 0x618 <__bad_interrupt>
   c:	0c 94 0c 03 	jmp	0x618	; 0x618 <__bad_interrupt>
  10:	0c 94 0c 03 	jmp	0x618	; 0x618 <__bad_interrupt>
  14:	0c 94 0c 03 	jmp	0x618	; 0x618 <__bad_interrupt>
  18:	0c 94 0c 03 	jmp	0x618	; 0x618 <__bad_interrupt>
  1c:	0c 94 0c 03 	jmp	0x618	; 0x618 <__bad_interrupt>
  20:	0c 94 0c 03 	jmp	0x618	; 0x618 <__bad_interrupt>
  24:	0c 94 0c 03 	jmp	0x618	; 0x618 <__bad_interrupt>
  28:	0c 94 0c 03 	jmp	0x618	; 0x618 <__bad_interrupt>
  2c:	0c 94 0c 03 	jmp	0x618	; 0x618 <__bad_interrupt>
  30:	0c 94 0c 03 	jmp	0x618	; 0x618 <__bad_interrupt>
  34:	0c 94 0c 03 	jmp	0x618	; 0x618 <__bad_interrupt>
  38:	0c 94 0c 03 	jmp	0x618	; 0x618 <__bad_interrupt>
  3c:	0c 94 0c 03 	jmp	0x618	; 0x618 <__bad_interrupt>
  40:	0c 94 0c 03 	jmp	0x618	; 0x618 <__bad_interrupt>
  44:	0c 94 0c 03 	jmp	0x618	; 0x618 <__bad_interrupt>
  48:	0c 94 0c 03 	jmp	0x618	; 0x618 <__bad_interrupt>
  4c:	0c 94 0c 03 	jmp	0x618	; 0x618 <__bad_interrupt>
  50:	0c 94 0c 03 	jmp	0x618	; 0x618 <__bad_interrupt>
  54:	8a 01       	movw	r16, r20
  56:	a3 01       	movw	r20, r6
  58:	bc 01       	movw	r22, r24
  5a:	d5 01       	movw	r26, r10
  5c:	ed 01       	movw	r28, r26
  5e:	ed 01       	movw	r28, r26
  60:	ed 01       	movw	r28, r26
  62:	ed 01       	movw	r28, r26
  64:	ed 01       	movw	r28, r26
  66:	ed 01       	movw	r28, r26
  68:	ed 01       	movw	r28, r26
  6a:	ed 01       	movw	r28, r26
  6c:	ed 01       	movw	r28, r26
  6e:	ed 01       	movw	r28, r26
  70:	ed 01       	movw	r28, r26
  72:	ed 01       	movw	r28, r26
  74:	ed 01       	movw	r28, r26
  76:	ed 01       	movw	r28, r26
  78:	ed 01       	movw	r28, r26
  7a:	ed 01       	movw	r28, r26
  7c:	ed 01       	movw	r28, r26
  7e:	ed 01       	movw	r28, r26
  80:	ed 01       	movw	r28, r26
  82:	ed 01       	movw	r28, r26
  84:	ed 01       	movw	r28, r26
  86:	ed 01       	movw	r28, r26
  88:	ed 01       	movw	r28, r26
  8a:	ed 01       	movw	r28, r26
  8c:	ed 01       	movw	r28, r26
  8e:	ed 01       	movw	r28, r26
  90:	ed 01       	movw	r28, r26
  92:	ed 01       	movw	r28, r26
  94:	8a 01       	movw	r16, r20
  96:	a3 01       	movw	r20, r6
  98:	bc 01       	movw	r22, r24
  9a:	d5 01       	movw	r26, r10
  9c:	fa 01       	movw	r30, r20
  9e:	13 02       	muls	r17, r19
  a0:	2c 02       	muls	r18, r28
  a2:	45 02       	muls	r20, r21
  a4:	5d 02       	muls	r21, r29
  a6:	5d 02       	muls	r21, r29
  a8:	5d 02       	muls	r21, r29
  aa:	5d 02       	muls	r21, r29
  ac:	5d 02       	muls	r21, r29
  ae:	5d 02       	muls	r21, r29
  b0:	5d 02       	muls	r21, r29
  b2:	5d 02       	muls	r21, r29
  b4:	5d 02       	muls	r21, r29
  b6:	5d 02       	muls	r21, r29
  b8:	5d 02       	muls	r21, r29
  ba:	5d 02       	muls	r21, r29
  bc:	5d 02       	muls	r21, r29
  be:	5d 02       	muls	r21, r29
  c0:	5d 02       	muls	r21, r29
  c2:	5d 02       	muls	r21, r29
  c4:	5d 02       	muls	r21, r29
  c6:	5d 02       	muls	r21, r29
  c8:	5d 02       	muls	r21, r29
  ca:	5d 02       	muls	r21, r29
  cc:	5d 02       	muls	r21, r29
  ce:	5d 02       	muls	r21, r29
  d0:	5d 02       	muls	r21, r29
  d2:	5d 02       	muls	r21, r29
  d4:	5d 02       	muls	r21, r29
  d6:	5d 02       	muls	r21, r29
  d8:	5d 02       	muls	r21, r29
  da:	5d 02       	muls	r21, r29
  dc:	fa 01       	movw	r30, r20
  de:	13 02       	muls	r17, r19
  e0:	2c 02       	muls	r18, r28
  e2:	45 02       	muls	r20, r21

000000e4 <__ctors_end>:
  e4:	11 24       	eor	r1, r1
  e6:	1f be       	out	0x3f, r1	; 63
  e8:	cf e5       	ldi	r28, 0x5F	; 95
  ea:	d8 e0       	ldi	r29, 0x08	; 8
  ec:	de bf       	out	0x3e, r29	; 62
  ee:	cd bf       	out	0x3d, r28	; 61

000000f0 <__do_copy_data>:
  f0:	e4 ee       	ldi	r30, 0xE4	; 228
  f2:	f0 e0       	ldi	r31, 0x00	; 0
  f4:	40 e0       	ldi	r20, 0x00	; 0
  f6:	17 c0       	rjmp	.+46     	; 0x126 <__do_clear_bss+0x8>
  f8:	b5 91       	lpm	r27, Z+
  fa:	a5 91       	lpm	r26, Z+
  fc:	35 91       	lpm	r19, Z+
  fe:	25 91       	lpm	r18, Z+
 100:	05 91       	lpm	r16, Z+
 102:	07 fd       	sbrc	r16, 7
 104:	0c c0       	rjmp	.+24     	; 0x11e <__do_clear_bss>
 106:	95 91       	lpm	r25, Z+
 108:	85 91       	lpm	r24, Z+
 10a:	ef 01       	movw	r28, r30
 10c:	f9 2f       	mov	r31, r25
 10e:	e8 2f       	mov	r30, r24
 110:	05 90       	lpm	r0, Z+
 112:	0d 92       	st	X+, r0
 114:	a2 17       	cp	r26, r18
 116:	b3 07       	cpc	r27, r19
 118:	d9 f7       	brne	.-10     	; 0x110 <__do_copy_data+0x20>
 11a:	fe 01       	movw	r30, r28
 11c:	04 c0       	rjmp	.+8      	; 0x126 <__do_clear_bss+0x8>

0000011e <__do_clear_bss>:
 11e:	1d 92       	st	X+, r1
 120:	a2 17       	cp	r26, r18
 122:	b3 07       	cpc	r27, r19
 124:	e1 f7       	brne	.-8      	; 0x11e <__do_clear_bss>
 126:	e4 3e       	cpi	r30, 0xE4	; 228
 128:	f4 07       	cpc	r31, r20
 12a:	31 f7       	brne	.-52     	; 0xf8 <__do_copy_data+0x8>
 12c:	0e 94 5e 02 	call	0x4bc	; 0x4bc <main>
 130:	0c 94 e7 02 	jmp	0x5ce	; 0x5ce <exit>

00000134 <_exit>:
 134:	f8 94       	cli

00000136 <__stop_program>:
 136:	ff cf       	rjmp	.-2      	; 0x136 <__stop_program>

Disassembly of section .text:

00000618 <__bad_interrupt>:
 618:	0c 94 00 00 	jmp	0	; 0x0 <__TEXT_REGION_ORIGIN__>

Disassembly of section .text.DIO_Setpindir:

000002fc <DIO_Setpindir>:
#include <avr/io.h>
#include "important macros.h"

void DIO_Setpindir(char port,char pin,char dir)
{
	switch(port)
 2fc:	90 e0       	ldi	r25, 0x00	; 0
 2fe:	fc 01       	movw	r30, r24
 300:	e1 54       	subi	r30, 0x41	; 65
 302:	f1 09       	sbc	r31, r1
 304:	e4 32       	cpi	r30, 0x24	; 36
 306:	f1 05       	cpc	r31, r1
 308:	08 f0       	brcs	.+2      	; 0x30c <DIO_Setpindir+0x10>
 30a:	67 c0       	rjmp	.+206    	; 0x3da <DIO_Setpindir+0xde>
 30c:	e6 5d       	subi	r30, 0xD6	; 214
 30e:	ff 4f       	sbci	r31, 0xFF	; 255
 310:	0c 94 f2 02 	jmp	0x5e4	; 0x5e4 <__tablejump2__>
	{
		case 'A':
		case 'a':
		if(dir==1)
 314:	41 30       	cpi	r20, 0x01	; 1
 316:	59 f4       	brne	.+22     	; 0x32e <DIO_Setpindir+0x32>
		{
			DDRA |=(1<<pin);
 318:	2a b3       	in	r18, 0x1a	; 26
 31a:	81 e0       	ldi	r24, 0x01	; 1
 31c:	90 e0       	ldi	r25, 0x00	; 0
 31e:	02 c0       	rjmp	.+4      	; 0x324 <DIO_Setpindir+0x28>
 320:	88 0f       	add	r24, r24
 322:	99 1f       	adc	r25, r25
 324:	6a 95       	dec	r22
 326:	e2 f7       	brpl	.-8      	; 0x320 <DIO_Setpindir+0x24>
 328:	82 2b       	or	r24, r18
 32a:	8a bb       	out	0x1a, r24	; 26
 32c:	08 95       	ret
		}
		else
		{
			DDRA &=~(1<<pin);
 32e:	2a b3       	in	r18, 0x1a	; 26
 330:	81 e0       	ldi	r24, 0x01	; 1
 332:	90 e0       	ldi	r25, 0x00	; 0
 334:	02 c0       	rjmp	.+4      	; 0x33a <DIO_Setpindir+0x3e>
 336:	88 0f       	add	r24, r24
 338:	99 1f       	adc	r25, r25
 33a:	6a 95       	dec	r22
 33c:	e2 f7       	brpl	.-8      	; 0x336 <DIO_Setpindir+0x3a>
 33e:	80 95       	com	r24
 340:	82 23       	and	r24, r18
 342:	8a bb       	out	0x1a, r24	; 26
 344:	08 95       	ret
		}
		break;
		case 'B':
		case 'b':
		if(dir==1)
 346:	41 30       	cpi	r20, 0x01	; 1
 348:	59 f4       	brne	.+22     	; 0x360 <DIO_Setpindir+0x64>
		{
			DDRB |=(1<<pin);
 34a:	27 b3       	in	r18, 0x17	; 23
 34c:	81 e0       	ldi	r24, 0x01	; 1
 34e:	90 e0       	ldi	r25, 0x00	; 0
 350:	02 c0       	rjmp	.+4      	; 0x356 <DIO_Setpindir+0x5a>
 352:	88 0f       	add	r24, r24
 354:	99 1f       	adc	r25, r25
 356:	6a 95       	dec	r22
 358:	e2 f7       	brpl	.-8      	; 0x352 <DIO_Setpindir+0x56>
 35a:	82 2b       	or	r24, r18
 35c:	87 bb       	out	0x17, r24	; 23
 35e:	08 95       	ret
		}
		else
		{
			DDRB &=~(1<<pin);
 360:	27 b3       	in	r18, 0x17	; 23
 362:	81 e0       	ldi	r24, 0x01	; 1
 364:	90 e0       	ldi	r25, 0x00	; 0
 366:	02 c0       	rjmp	.+4      	; 0x36c <DIO_Setpindir+0x70>
 368:	88 0f       	add	r24, r24
 36a:	99 1f       	adc	r25, r25
 36c:	6a 95       	dec	r22
 36e:	e2 f7       	brpl	.-8      	; 0x368 <DIO_Setpindir+0x6c>
 370:	80 95       	com	r24
 372:	82 23       	and	r24, r18
 374:	87 bb       	out	0x17, r24	; 23
 376:	08 95       	ret
		}
		break;
		case 'C':
		case 'c':
		if(dir==1)
 378:	41 30       	cpi	r20, 0x01	; 1
 37a:	59 f4       	brne	.+22     	; 0x392 <DIO_Setpindir+0x96>
		{
			DDRC |=(1<<pin);
 37c:	24 b3       	in	r18, 0x14	; 20
 37e:	81 e0       	ldi	r24, 0x01	; 1
 380:	90 e0       	ldi	r25, 0x00	; 0
 382:	02 c0       	rjmp	.+4      	; 0x388 <DIO_Setpindir+0x8c>
 384:	88 0f       	add	r24, r24
 386:	99 1f       	adc	r25, r25
 388:	6a 95       	dec	r22
 38a:	e2 f7       	brpl	.-8      	; 0x384 <DIO_Setpindir+0x88>
 38c:	82 2b       	or	r24, r18
 38e:	84 bb       	out	0x14, r24	; 20
 390:	08 95       	ret
		}
		else
		{
			DDRC &=~(1<<pin);
 392:	24 b3       	in	r18, 0x14	; 20
 394:	81 e0       	ldi	r24, 0x01	; 1
 396:	90 e0       	ldi	r25, 0x00	; 0
 398:	02 c0       	rjmp	.+4      	; 0x39e <DIO_Setpindir+0xa2>
 39a:	88 0f       	add	r24, r24
 39c:	99 1f       	adc	r25, r25
 39e:	6a 95       	dec	r22
 3a0:	e2 f7       	brpl	.-8      	; 0x39a <DIO_Setpindir+0x9e>
 3a2:	80 95       	com	r24
 3a4:	82 23       	and	r24, r18
 3a6:	84 bb       	out	0x14, r24	; 20
 3a8:	08 95       	ret
		}
		break;
		case 'D':
		case 'd':
		if(dir==1)
 3aa:	41 30       	cpi	r20, 0x01	; 1
 3ac:	59 f4       	brne	.+22     	; 0x3c4 <DIO_Setpindir+0xc8>
		{
			DDRD |=(1<<pin);
 3ae:	21 b3       	in	r18, 0x11	; 17
 3b0:	81 e0       	ldi	r24, 0x01	; 1
 3b2:	90 e0       	ldi	r25, 0x00	; 0
 3b4:	02 c0       	rjmp	.+4      	; 0x3ba <DIO_Setpindir+0xbe>
 3b6:	88 0f       	add	r24, r24
 3b8:	99 1f       	adc	r25, r25
 3ba:	6a 95       	dec	r22
 3bc:	e2 f7       	brpl	.-8      	; 0x3b6 <DIO_Setpindir+0xba>
 3be:	82 2b       	or	r24, r18
 3c0:	81 bb       	out	0x11, r24	; 17
 3c2:	08 95       	ret
		}
		else
		{
			DDRD &=~(1<<pin);
 3c4:	21 b3       	in	r18, 0x11	; 17
 3c6:	81 e0       	ldi	r24, 0x01	; 1
 3c8:	90 e0       	ldi	r25, 0x00	; 0
 3ca:	02 c0       	rjmp	.+4      	; 0x3d0 <DIO_Setpindir+0xd4>
 3cc:	88 0f       	add	r24, r24
 3ce:	99 1f       	adc	r25, r25
 3d0:	6a 95       	dec	r22
 3d2:	e2 f7       	brpl	.-8      	; 0x3cc <DIO_Setpindir+0xd0>
 3d4:	80 95       	com	r24
 3d6:	82 23       	and	r24, r18
 3d8:	81 bb       	out	0x11, r24	; 17
 3da:	08 95       	ret

Disassembly of section .text.DIO_Writepin:

000003dc <DIO_Writepin>:



 void DIO_Writepin(char port,char pin , char val)
{
	switch(port)
 3dc:	90 e0       	ldi	r25, 0x00	; 0
 3de:	fc 01       	movw	r30, r24
 3e0:	e1 54       	subi	r30, 0x41	; 65
 3e2:	f1 09       	sbc	r31, r1
 3e4:	e4 32       	cpi	r30, 0x24	; 36
 3e6:	f1 05       	cpc	r31, r1
 3e8:	08 f0       	brcs	.+2      	; 0x3ec <DIO_Writepin+0x10>
 3ea:	67 c0       	rjmp	.+206    	; 0x4ba <__EEPROM_REGION_LENGTH__+0xba>
 3ec:	e2 5b       	subi	r30, 0xB2	; 178
 3ee:	ff 4f       	sbci	r31, 0xFF	; 255
 3f0:	0c 94 f2 02 	jmp	0x5e4	; 0x5e4 <__tablejump2__>
	{
		case 'A':
		case 'a':
		if (val==1)
 3f4:	41 30       	cpi	r20, 0x01	; 1
 3f6:	59 f4       	brne	.+22     	; 0x40e <__EEPROM_REGION_LENGTH__+0xe>
		{
			SET_BIT(PORTA,pin);
 3f8:	2b b3       	in	r18, 0x1b	; 27
 3fa:	81 e0       	ldi	r24, 0x01	; 1
 3fc:	90 e0       	ldi	r25, 0x00	; 0
 3fe:	02 c0       	rjmp	.+4      	; 0x404 <__EEPROM_REGION_LENGTH__+0x4>
 400:	88 0f       	add	r24, r24
 402:	99 1f       	adc	r25, r25
 404:	6a 95       	dec	r22
 406:	e2 f7       	brpl	.-8      	; 0x400 <__EEPROM_REGION_LENGTH__>
 408:	82 2b       	or	r24, r18
 40a:	8b bb       	out	0x1b, r24	; 27
 40c:	08 95       	ret
		}
		else
		{
			CLR_BIT(PORTA,pin);
 40e:	2b b3       	in	r18, 0x1b	; 27
 410:	81 e0       	ldi	r24, 0x01	; 1
 412:	90 e0       	ldi	r25, 0x00	; 0
 414:	02 c0       	rjmp	.+4      	; 0x41a <__EEPROM_REGION_LENGTH__+0x1a>
 416:	88 0f       	add	r24, r24
 418:	99 1f       	adc	r25, r25
 41a:	6a 95       	dec	r22
 41c:	e2 f7       	brpl	.-8      	; 0x416 <__EEPROM_REGION_LENGTH__+0x16>
 41e:	80 95       	com	r24
 420:	82 23       	and	r24, r18
 422:	8b bb       	out	0x1b, r24	; 27
 424:	08 95       	ret
		}
		break;
		case 'B':
		case 'b':
		if (val==1)
 426:	41 30       	cpi	r20, 0x01	; 1
 428:	59 f4       	brne	.+22     	; 0x440 <__EEPROM_REGION_LENGTH__+0x40>
		{
			SET_BIT(PORTB,pin);
 42a:	28 b3       	in	r18, 0x18	; 24
 42c:	81 e0       	ldi	r24, 0x01	; 1
 42e:	90 e0       	ldi	r25, 0x00	; 0
 430:	02 c0       	rjmp	.+4      	; 0x436 <__EEPROM_REGION_LENGTH__+0x36>
 432:	88 0f       	add	r24, r24
 434:	99 1f       	adc	r25, r25
 436:	6a 95       	dec	r22
 438:	e2 f7       	brpl	.-8      	; 0x432 <__EEPROM_REGION_LENGTH__+0x32>
 43a:	82 2b       	or	r24, r18
 43c:	88 bb       	out	0x18, r24	; 24
 43e:	08 95       	ret
		}
		else
		{
			CLR_BIT(PORTB,pin);
 440:	28 b3       	in	r18, 0x18	; 24
 442:	81 e0       	ldi	r24, 0x01	; 1
 444:	90 e0       	ldi	r25, 0x00	; 0
 446:	02 c0       	rjmp	.+4      	; 0x44c <__EEPROM_REGION_LENGTH__+0x4c>
 448:	88 0f       	add	r24, r24
 44a:	99 1f       	adc	r25, r25
 44c:	6a 95       	dec	r22
 44e:	e2 f7       	brpl	.-8      	; 0x448 <__EEPROM_REGION_LENGTH__+0x48>
 450:	80 95       	com	r24
 452:	82 23       	and	r24, r18
 454:	88 bb       	out	0x18, r24	; 24
 456:	08 95       	ret
		}
		break;
		case 'C':
		case 'c':
		if (val==1)
 458:	41 30       	cpi	r20, 0x01	; 1
 45a:	59 f4       	brne	.+22     	; 0x472 <__EEPROM_REGION_LENGTH__+0x72>
		{
			SET_BIT(PORTC,pin);
 45c:	25 b3       	in	r18, 0x15	; 21
 45e:	81 e0       	ldi	r24, 0x01	; 1
 460:	90 e0       	ldi	r25, 0x00	; 0
 462:	02 c0       	rjmp	.+4      	; 0x468 <__EEPROM_REGION_LENGTH__+0x68>
 464:	88 0f       	add	r24, r24
 466:	99 1f       	adc	r25, r25
 468:	6a 95       	dec	r22
 46a:	e2 f7       	brpl	.-8      	; 0x464 <__EEPROM_REGION_LENGTH__+0x64>
 46c:	82 2b       	or	r24, r18
 46e:	85 bb       	out	0x15, r24	; 21
 470:	08 95       	ret
		}
		else
		{
			CLR_BIT(PORTC,pin);
 472:	25 b3       	in	r18, 0x15	; 21
 474:	81 e0       	ldi	r24, 0x01	; 1
 476:	90 e0       	ldi	r25, 0x00	; 0
 478:	02 c0       	rjmp	.+4      	; 0x47e <__EEPROM_REGION_LENGTH__+0x7e>
 47a:	88 0f       	add	r24, r24
 47c:	99 1f       	adc	r25, r25
 47e:	6a 95       	dec	r22
 480:	e2 f7       	brpl	.-8      	; 0x47a <__EEPROM_REGION_LENGTH__+0x7a>
 482:	80 95       	com	r24
 484:	82 23       	and	r24, r18
 486:	85 bb       	out	0x15, r24	; 21
 488:	08 95       	ret
		}
		break;
		case 'D':
		case 'd':
		if (val==1)
 48a:	41 30       	cpi	r20, 0x01	; 1
 48c:	59 f4       	brne	.+22     	; 0x4a4 <__EEPROM_REGION_LENGTH__+0xa4>
		{
			SET_BIT(PORTD,pin);
 48e:	22 b3       	in	r18, 0x12	; 18
 490:	81 e0       	ldi	r24, 0x01	; 1
 492:	90 e0       	ldi	r25, 0x00	; 0
 494:	02 c0       	rjmp	.+4      	; 0x49a <__EEPROM_REGION_LENGTH__+0x9a>
 496:	88 0f       	add	r24, r24
 498:	99 1f       	adc	r25, r25
 49a:	6a 95       	dec	r22
 49c:	e2 f7       	brpl	.-8      	; 0x496 <__EEPROM_REGION_LENGTH__+0x96>
 49e:	82 2b       	or	r24, r18
 4a0:	82 bb       	out	0x12, r24	; 18
 4a2:	08 95       	ret
		}
		else
		{
			CLR_BIT(PORTD,pin);
 4a4:	22 b3       	in	r18, 0x12	; 18
 4a6:	81 e0       	ldi	r24, 0x01	; 1
 4a8:	90 e0       	ldi	r25, 0x00	; 0
 4aa:	02 c0       	rjmp	.+4      	; 0x4b0 <__EEPROM_REGION_LENGTH__+0xb0>
 4ac:	88 0f       	add	r24, r24
 4ae:	99 1f       	adc	r25, r25
 4b0:	6a 95       	dec	r22
 4b2:	e2 f7       	brpl	.-8      	; 0x4ac <__EEPROM_REGION_LENGTH__+0xac>
 4b4:	80 95       	com	r24
 4b6:	82 23       	and	r24, r18
 4b8:	82 bb       	out	0x12, r24	; 18
 4ba:	08 95       	ret

Disassembly of section .text.LED_Init:

000005f0 <LED_Init>:
#include "DIO.h"

void LED_Init(char port , char pin)
{
	DIO_Setpindir(port,pin,1);
 5f0:	41 e0       	ldi	r20, 0x01	; 1
 5f2:	0e 94 7e 01 	call	0x2fc	; 0x2fc <DIO_Setpindir>
 5f6:	08 95       	ret

Disassembly of section .text.LED_On:

000005f8 <LED_On>:
}

void LED_On(char port, char pin)
{
	DIO_Writepin(port,pin,1);
 5f8:	41 e0       	ldi	r20, 0x01	; 1
 5fa:	0e 94 ee 01 	call	0x3dc	; 0x3dc <DIO_Writepin>
 5fe:	08 95       	ret

Disassembly of section .text.LED_Off:

00000600 <LED_Off>:
}

void LED_Off(char port, char pin)
{
	DIO_Writepin(port,pin,0);
 600:	40 e0       	ldi	r20, 0x00	; 0
 602:	0e 94 ee 01 	call	0x3dc	; 0x3dc <DIO_Writepin>
 606:	08 95       	ret

Disassembly of section .text.main:

000004bc <main>:
// Main Function
// =========================
int main(void)
{
    // -------- Motor Pins Init (Port A) --------
    for (int i = 0; i < 8; i++) {
 4bc:	c0 e0       	ldi	r28, 0x00	; 0
 4be:	d0 e0       	ldi	r29, 0x00	; 0
 4c0:	06 c0       	rjmp	.+12     	; 0x4ce <main+0x12>
        DIO_Setpindir('A', i, 1);
 4c2:	41 e0       	ldi	r20, 0x01	; 1
 4c4:	6c 2f       	mov	r22, r28
 4c6:	81 e4       	ldi	r24, 0x41	; 65
 4c8:	0e 94 7e 01 	call	0x2fc	; 0x2fc <DIO_Setpindir>
// Main Function
// =========================
int main(void)
{
    // -------- Motor Pins Init (Port A) --------
    for (int i = 0; i < 8; i++) {
 4cc:	21 96       	adiw	r28, 0x01	; 1
 4ce:	c8 30       	cpi	r28, 0x08	; 8
 4d0:	d1 05       	cpc	r29, r1
 4d2:	bc f3       	brlt	.-18     	; 0x4c2 <main+0x6>
        DIO_Setpindir('A', i, 1);
    }
 
    // -------- Status LED --------
    LED_Init('C', 0);
 4d4:	60 e0       	ldi	r22, 0x00	; 0
 4d6:	83 e4       	ldi	r24, 0x43	; 67
 4d8:	0e 94 f8 02 	call	0x5f0	; 0x5f0 <LED_Init>
    LED_On('C', 0);
 4dc:	60 e0       	ldi	r22, 0x00	; 0
 4de:	83 e4       	ldi	r24, 0x43	; 67
 4e0:	0e 94 fc 02 	call	0x5f8	; 0x5f8 <LED_On>
	#else
		//round up by default
		__ticks_dc = (uint32_t)(ceil(fabs(__tmp)));
	#endif

	__builtin_avr_delay_cycles(__ticks_dc);
 4e4:	2f ef       	ldi	r18, 0xFF	; 255
 4e6:	89 e6       	ldi	r24, 0x69	; 105
 4e8:	98 e1       	ldi	r25, 0x18	; 24
 4ea:	21 50       	subi	r18, 0x01	; 1
 4ec:	80 40       	sbci	r24, 0x00	; 0
 4ee:	90 40       	sbci	r25, 0x00	; 0
 4f0:	e1 f7       	brne	.-8      	; 0x4ea <main+0x2e>
 4f2:	00 c0       	rjmp	.+0      	; 0x4f4 <main+0x38>
 4f4:	00 00       	nop
    _delay_ms(1000);
    LED_Off('C', 0);
 4f6:	60 e0       	ldi	r22, 0x00	; 0
 4f8:	83 e4       	ldi	r24, 0x43	; 67
 4fa:	0e 94 00 03 	call	0x600	; 0x600 <LED_Off>
 
    // -------- UART Init --------
    UART_Init(9600);
 4fe:	60 e8       	ldi	r22, 0x80	; 128
 500:	75 e2       	ldi	r23, 0x25	; 37
 502:	80 e0       	ldi	r24, 0x00	; 0
 504:	90 e0       	ldi	r25, 0x00	; 0
 506:	0e 94 8d 02 	call	0x51a	; 0x51a <UART_Init>
    UART_Send_string("[DEBUG] UART Initialized @9600\r\n");
 50a:	60 e9       	ldi	r22, 0x90	; 144
 50c:	72 e0       	ldi	r23, 0x02	; 2
 50e:	80 e0       	ldi	r24, 0x00	; 0
 510:	0e 94 d1 02 	call	0x5a2	; 0x5a2 <UART_Send_string>
    char Commands;
 
    // -------- Main Loop --------
    while (1)
    {
       Commands == UART_Receive_data();
 514:	0e 94 08 03 	call	0x610	; 0x610 <UART_Receive_data>
 518:	fd cf       	rjmp	.-6      	; 0x514 <main+0x58>

Disassembly of section .text.UART_Init:

0000051a <UART_Init>:


void UART_Init(unsigned long baud)
{
	// 1. Calculate UBRR for Double Speed mode (8 instead of 16)
	unsigned short ubrr_value = (F_CPU/(8UL*baud)) - 1;
 51a:	dc 01       	movw	r26, r24
 51c:	cb 01       	movw	r24, r22
 51e:	88 0f       	add	r24, r24
 520:	99 1f       	adc	r25, r25
 522:	aa 1f       	adc	r26, r26
 524:	bb 1f       	adc	r27, r27
 526:	88 0f       	add	r24, r24
 528:	99 1f       	adc	r25, r25
 52a:	aa 1f       	adc	r26, r26
 52c:	bb 1f       	adc	r27, r27
 52e:	9c 01       	movw	r18, r24
 530:	ad 01       	movw	r20, r26
 532:	22 0f       	add	r18, r18
 534:	33 1f       	adc	r19, r19
 536:	44 1f       	adc	r20, r20
 538:	55 1f       	adc	r21, r21
 53a:	60 e0       	ldi	r22, 0x00	; 0
 53c:	72 e1       	ldi	r23, 0x12	; 18
 53e:	8a e7       	ldi	r24, 0x7A	; 122
 540:	90 e0       	ldi	r25, 0x00	; 0
 542:	0e 94 af 02 	call	0x55e	; 0x55e <__udivmodsi4>
 546:	21 50       	subi	r18, 0x01	; 1
 548:	31 09       	sbc	r19, r1
	
	UBRRH = (unsigned char)(ubrr_value >> 8);
 54a:	30 bd       	out	0x20, r19	; 32
	UBRRL = (unsigned char)(ubrr_value);
 54c:	29 b9       	out	0x09, r18	; 9
	
	// 2. Enable Double Speed Mode
	UCSRA |= (1 << U2X);
 54e:	8b b1       	in	r24, 0x0b	; 11
 550:	82 60       	ori	r24, 0x02	; 2
 552:	8b b9       	out	0x0b, r24	; 11

	// 3. Enable RX and TX
	UCSRB = (1 << RXEN) | (1 << TXEN);
 554:	88 e1       	ldi	r24, 0x18	; 24
 556:	8a b9       	out	0x0a, r24	; 10
	
	// 4. Set Frame Format (8N1)
	UCSRC = (1 << URSEL) | (1 << UCSZ1) | (1 << UCSZ0);
 558:	86 e8       	ldi	r24, 0x86	; 134
 55a:	80 bd       	out	0x20, r24	; 32
 55c:	08 95       	ret

Disassembly of section .text.UART_Send_data:

00000608 <UART_Send_data>:


void UART_Send_data(char data)
{
	/*wait for the UDR transmit buffer to be empty*/
	while(READ_BIT(UCSRA,UDRE)==0);
 608:	5d 9b       	sbis	0x0b, 5	; 11
 60a:	fe cf       	rjmp	.-4      	; 0x608 <UART_Send_data>
	//put data to udr to transmit buffer
	UDR = data;
 60c:	8c b9       	out	0x0c, r24	; 12
 60e:	08 95       	ret

Disassembly of section .text.UART_Receive_data:

00000610 <UART_Receive_data>:
}

char UART_Receive_data(void)
{
	while(READ_BIT(UCSRA,RXC)==0);
 610:	5f 9b       	sbis	0x0b, 7	; 11
 612:	fe cf       	rjmp	.-4      	; 0x610 <UART_Receive_data>
	return UDR;
 614:	8c b1       	in	r24, 0x0c	; 12
}
 616:	08 95       	ret

Disassembly of section .text.UART_Send_string:

000005a2 <UART_Send_string>:

void UART_Send_string (const char *ptr)
{
 5a2:	cf 92       	push	r12
 5a4:	df 92       	push	r13
 5a6:	ef 92       	push	r14
 5a8:	6b 01       	movw	r12, r22
 5aa:	e8 2e       	mov	r14, r24
	while (*ptr != '\0')
 5ac:	06 c0       	rjmp	.+12     	; 0x5ba <UART_Send_string+0x18>
	{
		UART_Send_data(*ptr++);
 5ae:	9f ef       	ldi	r25, 0xFF	; 255
 5b0:	c9 1a       	sub	r12, r25
 5b2:	d9 0a       	sbc	r13, r25
 5b4:	e9 0a       	sbc	r14, r25
 5b6:	0e 94 04 03 	call	0x608	; 0x608 <UART_Send_data>
	return UDR;
}

void UART_Send_string (const char *ptr)
{
	while (*ptr != '\0')
 5ba:	f6 01       	movw	r30, r12
 5bc:	84 91       	lpm	r24, Z
 5be:	e7 fc       	sbrc	r14, 7
 5c0:	80 81       	ld	r24, Z
 5c2:	81 11       	cpse	r24, r1
 5c4:	f4 cf       	rjmp	.-24     	; 0x5ae <UART_Send_string+0xc>
	{
		UART_Send_data(*ptr++);
	}
 5c6:	ef 90       	pop	r14
 5c8:	df 90       	pop	r13
 5ca:	cf 90       	pop	r12
 5cc:	08 95       	ret

Disassembly of section .text.libgcc.div:

0000055e <__udivmodsi4>:
 55e:	a1 e2       	ldi	r26, 0x21	; 33
 560:	1a 2e       	mov	r1, r26
 562:	aa 1b       	sub	r26, r26
 564:	bb 1b       	sub	r27, r27
 566:	fd 01       	movw	r30, r26
 568:	0d c0       	rjmp	.+26     	; 0x584 <__udivmodsi4_ep>

0000056a <__udivmodsi4_loop>:
 56a:	aa 1f       	adc	r26, r26
 56c:	bb 1f       	adc	r27, r27
 56e:	ee 1f       	adc	r30, r30
 570:	ff 1f       	adc	r31, r31
 572:	a2 17       	cp	r26, r18
 574:	b3 07       	cpc	r27, r19
 576:	e4 07       	cpc	r30, r20
 578:	f5 07       	cpc	r31, r21
 57a:	20 f0       	brcs	.+8      	; 0x584 <__udivmodsi4_ep>
 57c:	a2 1b       	sub	r26, r18
 57e:	b3 0b       	sbc	r27, r19
 580:	e4 0b       	sbc	r30, r20
 582:	f5 0b       	sbc	r31, r21

00000584 <__udivmodsi4_ep>:
 584:	66 1f       	adc	r22, r22
 586:	77 1f       	adc	r23, r23
 588:	88 1f       	adc	r24, r24
 58a:	99 1f       	adc	r25, r25
 58c:	1a 94       	dec	r1
 58e:	69 f7       	brne	.-38     	; 0x56a <__udivmodsi4_loop>
 590:	60 95       	com	r22
 592:	70 95       	com	r23
 594:	80 95       	com	r24
 596:	90 95       	com	r25
 598:	9b 01       	movw	r18, r22
 59a:	ac 01       	movw	r20, r24
 59c:	bd 01       	movw	r22, r26
 59e:	cf 01       	movw	r24, r30
 5a0:	08 95       	ret

Disassembly of section .text.libgcc:

000005e4 <__tablejump2__>:
 5e4:	ee 0f       	add	r30, r30
 5e6:	ff 1f       	adc	r31, r31
 5e8:	05 90       	lpm	r0, Z+
 5ea:	f4 91       	lpm	r31, Z
 5ec:	e0 2d       	mov	r30, r0
 5ee:	09 94       	ijmp

Disassembly of section .text.__dummy_fini:

00000620 <_fini>:
 620:	08 95       	ret

Disassembly of section .text.__dummy_funcs_on_exit:

00000622 <__funcs_on_exit>:
 622:	08 95       	ret

Disassembly of section .text.__dummy_simulator_exit:

00000624 <__simulator_exit>:
 624:	08 95       	ret

Disassembly of section .text.exit:

000005ce <exit>:
 5ce:	ec 01       	movw	r28, r24
 5d0:	0e 94 11 03 	call	0x622	; 0x622 <__funcs_on_exit>
 5d4:	0e 94 10 03 	call	0x620	; 0x620 <_fini>
 5d8:	ce 01       	movw	r24, r28
 5da:	0e 94 12 03 	call	0x624	; 0x624 <__simulator_exit>
 5de:	ce 01       	movw	r24, r28
 5e0:	0e 94 0e 03 	call	0x61c	; 0x61c <_Exit>

Disassembly of section .text._Exit:

0000061c <_Exit>:
 61c:	0e 94 9a 00 	call	0x134	; 0x134 <_exit>
