
Car_main_controller.elf:     file format elf32-avr

Sections:
Idx Name          Size      VMA       LMA       File off  Algn
  0 .text         00000186  00000000  00000000  00000094  2**1
                  CONTENTS, ALLOC, LOAD, READONLY, CODE
  1 .data         00000000  00800060  00800060  00000f06  2**0
                  ALLOC, LOAD, DATA
  2 .comment      0000002f  00000000  00000000  00000f06  2**0
                  CONTENTS, READONLY
  3 .stack.descriptors.hdr 0000002a  00000000  00000000  00000f35  2**0
                  CONTENTS, READONLY
  4 .debug_aranges 00000270  00000000  00000000  00000f5f  2**0
                  CONTENTS, READONLY, DEBUGGING
  5 .debug_info   00003c0e  00000000  00000000  000011cf  2**0
                  CONTENTS, READONLY, DEBUGGING
  6 .debug_abbrev 00000df4  00000000  00000000  00004ddd  2**0
                  CONTENTS, READONLY, DEBUGGING
  7 .debug_line   00001524  00000000  00000000  00005bd1  2**0
                  CONTENTS, READONLY, DEBUGGING
  8 .debug_frame  000004a0  00000000  00000000  000070f8  2**2
                  CONTENTS, READONLY, DEBUGGING
  9 .debug_str    0000039f  00000000  00000000  00007598  2**0
                  CONTENTS, READONLY, DEBUGGING
 10 .debug_loc    0000128f  00000000  00000000  00007937  2**0
                  CONTENTS, READONLY, DEBUGGING
 11 .debug_ranges 00000208  00000000  00000000  00008bc6  2**0
                  CONTENTS, READONLY, DEBUGGING
 12 .text         00000004  00000e64  00000e64  00000ef8  2**1
                  CONTENTS, ALLOC, LOAD, READONLY, CODE
 13 .note.gnu.avr.deviceinfo 0000003c  00000000  00000000  00008dd0  2**2
                  CONTENTS, READONLY, DEBUGGING
 14 .text.Button_Init 00000008  00000e2e  00000e2e  00000ec2  2**1
                  CONTENTS, ALLOC, LOAD, READONLY, CODE
 15 .text.Button_Read 00000006  00000e5e  00000e5e  00000ef2  2**1
                  CONTENTS, ALLOC, LOAD, READONLY, CODE
 16 .text.DIO_Setpindir 000000e0  000005b0  000005b0  00000644  2**1
                  CONTENTS, ALLOC, LOAD, READONLY, CODE
 17 .text.DIO_Writepin 000000e0  00000690  00000690  00000724  2**1
                  CONTENTS, ALLOC, LOAD, READONLY, CODE
 18 .text.DIO_Readpin 000000cc  00000770  00000770  00000804  2**1
                  CONTENTS, ALLOC, LOAD, READONLY, CODE
 19 .text.LED_Init 00000008  00000e36  00000e36  00000eca  2**1
                  CONTENTS, ALLOC, LOAD, READONLY, CODE
 20 .text.LED_On  00000008  00000e3e  00000e3e  00000ed2  2**1
                  CONTENTS, ALLOC, LOAD, READONLY, CODE
 21 .text.LED_Off 00000008  00000e46  00000e46  00000eda  2**1
                  CONTENTS, ALLOC, LOAD, READONLY, CODE
 22 .text.read_sensor_filtered 00000040  00000c9c  00000c9c  00000d30  2**1
                  CONTENTS, ALLOC, LOAD, READONLY, CODE
 23 .text.read_all_sensors 00000058  00000bbc  00000bbc  00000c50  2**1
                  CONTENTS, ALLOC, LOAD, READONLY, CODE
 24 .text.Decide_Movement 00000154  0000045c  0000045c  000004f0  2**1
                  CONTENTS, ALLOC, LOAD, READONLY, CODE
 25 .text.Back_Decide_Movement 000000b0  0000083c  0000083c  000008d0  2**1
                  CONTENTS, ALLOC, LOAD, READONLY, CODE
 26 .text.Push_Forward 0000001c  00000dc2  00000dc2  00000e56  2**1
                  CONTENTS, ALLOC, LOAD, READONLY, CODE
 27 .text.Push_Backward 0000001c  00000dde  00000dde  00000e72  2**1
                  CONTENTS, ALLOC, LOAD, READONLY, CODE
 28 .text.Cross_Intersection_Backward 0000005a  000008ec  000008ec  00000980  2**1
                  CONTENTS, ALLOC, LOAD, READONLY, CODE
 29 .bss.recovery_cycle_count 00000001  00800060  00800060  00000f06  2**0
                  ALLOC
 30 .bss.recovery_sweep 00000001  00800061  00800061  00000f06  2**0
                  ALLOC
 31 .bss.line_lost_count 00000001  00800062  00800062  00000f06  2**0
                  ALLOC
 32 .bss.bwd_confirm_count 00000001  00800063  00800063  00000f06  2**0
                  ALLOC
 33 .bss.fwd_confirm_count 00000001  00800064  00800064  00000f06  2**0
                  ALLOC
 34 .bss.last_direction 00000001  00800065  00800065  00000f06  2**0
                  ALLOC
 35 .progmemx.data 00000064  00000186  00000186  0000021a  2**0
                  CONTENTS, ALLOC, LOAD, READONLY, PROGMEMX
 36 .text.run_backward_until_intersection 0000002a  00000d6e  00000d6e  00000e02  2**1
                  CONTENTS, ALLOC, LOAD, READONLY, CODE
 37 .text.run_forward_until_intersection 0000002a  00000d98  00000d98  00000e2c  2**1
                  CONTENTS, ALLOC, LOAD, READONLY, CODE
 38 .text.main    00000272  000001ea  000001ea  0000027e  2**1
                  CONTENTS, ALLOC, LOAD, READONLY, CODE
 39 .text.set_pwm 00000012  00000e10  00000e10  00000ea4  2**1
                  CONTENTS, ALLOC, LOAD, READONLY, CODE
 40 .text.Move_Up_Straight 0000005a  00000946  00000946  000009da  2**1
                  CONTENTS, ALLOC, LOAD, READONLY, CODE
 41 .text.Move_Correct_Left 0000005a  000009a0  000009a0  00000a34  2**1
                  CONTENTS, ALLOC, LOAD, READONLY, CODE
 42 .text.Move_Correct_Right 0000005a  000009fa  000009fa  00000a8e  2**1
                  CONTENTS, ALLOC, LOAD, READONLY, CODE
 43 .text.Move_Down_Straight 0000005a  00000a54  00000a54  00000ae8  2**1
                  CONTENTS, ALLOC, LOAD, READONLY, CODE
 44 .text.Move_Left_Turn 0000005a  00000aae  00000aae  00000b42  2**1
                  CONTENTS, ALLOC, LOAD, READONLY, CODE
 45 .text.Move_Right_Turn 0000005a  00000b08  00000b08  00000b9c  2**1
                  CONTENTS, ALLOC, LOAD, READONLY, CODE
 46 .text.Stop    0000005a  00000b62  00000b62  00000bf6  2**1
                  CONTENTS, ALLOC, LOAD, READONLY, CODE
 47 .text.Timer_wave_fastPWM 00000030  00000d12  00000d12  00000da6  2**1
                  CONTENTS, ALLOC, LOAD, READONLY, CODE
 48 .text.Timer2_wave_fastPWM 00000036  00000cdc  00000cdc  00000d70  2**1
                  CONTENTS, ALLOC, LOAD, READONLY, CODE
 49 .text.UART_Init 00000044  00000c14  00000c14  00000ca8  2**1
                  CONTENTS, ALLOC, LOAD, READONLY, CODE
 50 .text.UART_Send_data 00000008  00000e4e  00000e4e  00000ee2  2**1
                  CONTENTS, ALLOC, LOAD, READONLY, CODE
 51 .text.UART_Receive_data 00000008  00000e56  00000e56  00000eea  2**1
                  CONTENTS, ALLOC, LOAD, READONLY, CODE
 52 .text.UART_Send_string 0000002c  00000d42  00000d42  00000dd6  2**1
                  CONTENTS, ALLOC, LOAD, READONLY, CODE
 53 .text.libgcc.div 00000044  00000c58  00000c58  00000cec  2**1
                  CONTENTS, ALLOC, LOAD, READONLY, CODE
 54 .text.libgcc  0000000c  00000e22  00000e22  00000eb6  2**1
                  CONTENTS, ALLOC, LOAD, READONLY, CODE
 55 .text.__dummy_fini 00000002  00000e6c  00000e6c  00000f00  2**1
                  CONTENTS, ALLOC, LOAD, READONLY, CODE
 56 .text.__dummy_funcs_on_exit 00000002  00000e6e  00000e6e  00000f02  2**1
                  CONTENTS, ALLOC, LOAD, READONLY, CODE
 57 .text.__dummy_simulator_exit 00000002  00000e70  00000e70  00000f04  2**1
                  CONTENTS, ALLOC, LOAD, READONLY, CODE
 58 .text.exit    00000016  00000dfa  00000dfa  00000e8e  2**1
                  CONTENTS, ALLOC, LOAD, READONLY, CODE
 59 .text._Exit   00000004  00000e68  00000e68  00000efc  2**1
                  CONTENTS, ALLOC, LOAD, READONLY, CODE

Disassembly of section .text:

00000000 <__vectors>:
   0:	0c 94 99 00 	jmp	0x132	; 0x132 <__ctors_end>
   4:	0c 94 32 07 	jmp	0xe64	; 0xe64 <__bad_interrupt>
   8:	0c 94 32 07 	jmp	0xe64	; 0xe64 <__bad_interrupt>
   c:	0c 94 32 07 	jmp	0xe64	; 0xe64 <__bad_interrupt>
  10:	0c 94 32 07 	jmp	0xe64	; 0xe64 <__bad_interrupt>
  14:	0c 94 32 07 	jmp	0xe64	; 0xe64 <__bad_interrupt>
  18:	0c 94 32 07 	jmp	0xe64	; 0xe64 <__bad_interrupt>
  1c:	0c 94 32 07 	jmp	0xe64	; 0xe64 <__bad_interrupt>
  20:	0c 94 32 07 	jmp	0xe64	; 0xe64 <__bad_interrupt>
  24:	0c 94 32 07 	jmp	0xe64	; 0xe64 <__bad_interrupt>
  28:	0c 94 32 07 	jmp	0xe64	; 0xe64 <__bad_interrupt>
  2c:	0c 94 32 07 	jmp	0xe64	; 0xe64 <__bad_interrupt>
  30:	0c 94 32 07 	jmp	0xe64	; 0xe64 <__bad_interrupt>
  34:	0c 94 32 07 	jmp	0xe64	; 0xe64 <__bad_interrupt>
  38:	0c 94 32 07 	jmp	0xe64	; 0xe64 <__bad_interrupt>
  3c:	0c 94 32 07 	jmp	0xe64	; 0xe64 <__bad_interrupt>
  40:	0c 94 32 07 	jmp	0xe64	; 0xe64 <__bad_interrupt>
  44:	0c 94 32 07 	jmp	0xe64	; 0xe64 <__bad_interrupt>
  48:	0c 94 32 07 	jmp	0xe64	; 0xe64 <__bad_interrupt>
  4c:	0c 94 32 07 	jmp	0xe64	; 0xe64 <__bad_interrupt>
  50:	0c 94 32 07 	jmp	0xe64	; 0xe64 <__bad_interrupt>
  54:	e4 02       	muls	r30, r20
  56:	fd 02       	muls	r31, r29
  58:	16 03       	mulsu	r17, r22
  5a:	2f 03       	fmul	r18, r23
  5c:	47 03       	mulsu	r20, r23
  5e:	47 03       	mulsu	r20, r23
  60:	47 03       	mulsu	r20, r23
  62:	47 03       	mulsu	r20, r23
  64:	47 03       	mulsu	r20, r23
  66:	47 03       	mulsu	r20, r23
  68:	47 03       	mulsu	r20, r23
  6a:	47 03       	mulsu	r20, r23
  6c:	47 03       	mulsu	r20, r23
  6e:	47 03       	mulsu	r20, r23
  70:	47 03       	mulsu	r20, r23
  72:	47 03       	mulsu	r20, r23
  74:	47 03       	mulsu	r20, r23
  76:	47 03       	mulsu	r20, r23
  78:	47 03       	mulsu	r20, r23
  7a:	47 03       	mulsu	r20, r23
  7c:	47 03       	mulsu	r20, r23
  7e:	47 03       	mulsu	r20, r23
  80:	47 03       	mulsu	r20, r23
  82:	47 03       	mulsu	r20, r23
  84:	47 03       	mulsu	r20, r23
  86:	47 03       	mulsu	r20, r23
  88:	47 03       	mulsu	r20, r23
  8a:	47 03       	mulsu	r20, r23
  8c:	47 03       	mulsu	r20, r23
  8e:	47 03       	mulsu	r20, r23
  90:	47 03       	mulsu	r20, r23
  92:	47 03       	mulsu	r20, r23
  94:	e4 02       	muls	r30, r20
  96:	fd 02       	muls	r31, r29
  98:	16 03       	mulsu	r17, r22
  9a:	2f 03       	fmul	r18, r23
  9c:	54 03       	mulsu	r21, r20
  9e:	6d 03       	fmul	r22, r21
  a0:	86 03       	fmuls	r16, r22
  a2:	9f 03       	fmulsu	r17, r23
  a4:	b7 03       	fmuls	r19, r23
  a6:	b7 03       	fmuls	r19, r23
  a8:	b7 03       	fmuls	r19, r23
  aa:	b7 03       	fmuls	r19, r23
  ac:	b7 03       	fmuls	r19, r23
  ae:	b7 03       	fmuls	r19, r23
  b0:	b7 03       	fmuls	r19, r23
  b2:	b7 03       	fmuls	r19, r23
  b4:	b7 03       	fmuls	r19, r23
  b6:	b7 03       	fmuls	r19, r23
  b8:	b7 03       	fmuls	r19, r23
  ba:	b7 03       	fmuls	r19, r23
  bc:	b7 03       	fmuls	r19, r23
  be:	b7 03       	fmuls	r19, r23
  c0:	b7 03       	fmuls	r19, r23
  c2:	b7 03       	fmuls	r19, r23
  c4:	b7 03       	fmuls	r19, r23
  c6:	b7 03       	fmuls	r19, r23
  c8:	b7 03       	fmuls	r19, r23
  ca:	b7 03       	fmuls	r19, r23
  cc:	b7 03       	fmuls	r19, r23
  ce:	b7 03       	fmuls	r19, r23
  d0:	b7 03       	fmuls	r19, r23
  d2:	b7 03       	fmuls	r19, r23
  d4:	b7 03       	fmuls	r19, r23
  d6:	b7 03       	fmuls	r19, r23
  d8:	b7 03       	fmuls	r19, r23
  da:	b7 03       	fmuls	r19, r23
  dc:	54 03       	mulsu	r21, r20
  de:	6d 03       	fmul	r22, r21
  e0:	86 03       	fmuls	r16, r22
  e2:	9f 03       	fmulsu	r17, r23
  e4:	c7 03       	fmuls	r20, r23
  e6:	dc 03       	fmulsu	r21, r20
  e8:	f1 03       	fmuls	r23, r17
  ea:	06 04       	cpc	r0, r6
  ec:	1a 04       	cpc	r1, r10
  ee:	1a 04       	cpc	r1, r10
  f0:	1a 04       	cpc	r1, r10
  f2:	1a 04       	cpc	r1, r10
  f4:	1a 04       	cpc	r1, r10
  f6:	1a 04       	cpc	r1, r10
  f8:	1a 04       	cpc	r1, r10
  fa:	1a 04       	cpc	r1, r10
  fc:	1a 04       	cpc	r1, r10
  fe:	1a 04       	cpc	r1, r10
 100:	1a 04       	cpc	r1, r10
 102:	1a 04       	cpc	r1, r10
 104:	1a 04       	cpc	r1, r10
 106:	1a 04       	cpc	r1, r10
 108:	1a 04       	cpc	r1, r10
 10a:	1a 04       	cpc	r1, r10
 10c:	1a 04       	cpc	r1, r10
 10e:	1a 04       	cpc	r1, r10
 110:	1a 04       	cpc	r1, r10
 112:	1a 04       	cpc	r1, r10
 114:	1a 04       	cpc	r1, r10
 116:	1a 04       	cpc	r1, r10
 118:	1a 04       	cpc	r1, r10
 11a:	1a 04       	cpc	r1, r10
 11c:	1a 04       	cpc	r1, r10
 11e:	1a 04       	cpc	r1, r10
 120:	1a 04       	cpc	r1, r10
 122:	1a 04       	cpc	r1, r10
 124:	c7 03       	fmuls	r20, r23
 126:	dc 03       	fmulsu	r21, r20
 128:	f1 03       	fmuls	r23, r17
 12a:	06 04       	cpc	r0, r6

0000012c <.dinit>:
 12c:	00 60       	ori	r16, 0x00	; 0
 12e:	00 66       	ori	r16, 0x60	; 96
 130:	80 00       	.word	0x0080	; ????

00000132 <__ctors_end>:
 132:	11 24       	eor	r1, r1
 134:	1f be       	out	0x3f, r1	; 63
 136:	cf e5       	ldi	r28, 0x5F	; 95
 138:	d8 e0       	ldi	r29, 0x08	; 8
 13a:	de bf       	out	0x3e, r29	; 62
 13c:	cd bf       	out	0x3d, r28	; 61

0000013e <__do_copy_data>:
 13e:	ec e2       	ldi	r30, 0x2C	; 44
 140:	f1 e0       	ldi	r31, 0x01	; 1
 142:	41 e0       	ldi	r20, 0x01	; 1
 144:	17 c0       	rjmp	.+46     	; 0x174 <__do_clear_bss+0x8>
 146:	b5 91       	lpm	r27, Z+
 148:	a5 91       	lpm	r26, Z+
 14a:	35 91       	lpm	r19, Z+
 14c:	25 91       	lpm	r18, Z+
 14e:	05 91       	lpm	r16, Z+
 150:	07 fd       	sbrc	r16, 7
 152:	0c c0       	rjmp	.+24     	; 0x16c <__do_clear_bss>
 154:	95 91       	lpm	r25, Z+
 156:	85 91       	lpm	r24, Z+
 158:	ef 01       	movw	r28, r30
 15a:	f9 2f       	mov	r31, r25
 15c:	e8 2f       	mov	r30, r24
 15e:	05 90       	lpm	r0, Z+
 160:	0d 92       	st	X+, r0
 162:	a2 17       	cp	r26, r18
 164:	b3 07       	cpc	r27, r19
 166:	d9 f7       	brne	.-10     	; 0x15e <__do_copy_data+0x20>
 168:	fe 01       	movw	r30, r28
 16a:	04 c0       	rjmp	.+8      	; 0x174 <__do_clear_bss+0x8>

0000016c <__do_clear_bss>:
 16c:	1d 92       	st	X+, r1
 16e:	a2 17       	cp	r26, r18
 170:	b3 07       	cpc	r27, r19
 172:	e1 f7       	brne	.-8      	; 0x16c <__do_clear_bss>
 174:	e1 33       	cpi	r30, 0x31	; 49
 176:	f4 07       	cpc	r31, r20
 178:	31 f7       	brne	.-52     	; 0x146 <__do_copy_data+0x8>
 17a:	0e 94 f5 00 	call	0x1ea	; 0x1ea <main>
 17e:	0c 94 fd 06 	jmp	0xdfa	; 0xdfa <exit>

00000182 <_exit>:
 182:	f8 94       	cli

00000184 <__stop_program>:
 184:	ff cf       	rjmp	.-2      	; 0x184 <__stop_program>

Disassembly of section .text:

00000e64 <__bad_interrupt>:
 e64:	0c 94 00 00 	jmp	0	; 0x0 <__TEXT_REGION_ORIGIN__>

Disassembly of section .text.Button_Init:

00000e2e <Button_Init>:
 e2e:	40 e0       	ldi	r20, 0x00	; 0
 e30:	0e 94 d8 02 	call	0x5b0	; 0x5b0 <DIO_Setpindir>
 e34:	08 95       	ret

Disassembly of section .text.Button_Read:

00000e5e <Button_Read>:
 e5e:	0e 94 b8 03 	call	0x770	; 0x770 <DIO_Readpin>
 e62:	08 95       	ret

Disassembly of section .text.DIO_Setpindir:

000005b0 <DIO_Setpindir>:
 5b0:	90 e0       	ldi	r25, 0x00	; 0
 5b2:	fc 01       	movw	r30, r24
 5b4:	e1 54       	subi	r30, 0x41	; 65
 5b6:	f1 09       	sbc	r31, r1
 5b8:	e4 32       	cpi	r30, 0x24	; 36
 5ba:	f1 05       	cpc	r31, r1
 5bc:	08 f0       	brcs	.+2      	; 0x5c0 <DIO_Setpindir+0x10>
 5be:	67 c0       	rjmp	.+206    	; 0x68e <DIO_Setpindir+0xde>
 5c0:	e6 5d       	subi	r30, 0xD6	; 214
 5c2:	ff 4f       	sbci	r31, 0xFF	; 255
 5c4:	0c 94 11 07 	jmp	0xe22	; 0xe22 <__tablejump2__>
 5c8:	41 30       	cpi	r20, 0x01	; 1
 5ca:	59 f4       	brne	.+22     	; 0x5e2 <DIO_Setpindir+0x32>
 5cc:	2a b3       	in	r18, 0x1a	; 26
 5ce:	81 e0       	ldi	r24, 0x01	; 1
 5d0:	90 e0       	ldi	r25, 0x00	; 0
 5d2:	02 c0       	rjmp	.+4      	; 0x5d8 <DIO_Setpindir+0x28>
 5d4:	88 0f       	add	r24, r24
 5d6:	99 1f       	adc	r25, r25
 5d8:	6a 95       	dec	r22
 5da:	e2 f7       	brpl	.-8      	; 0x5d4 <DIO_Setpindir+0x24>
 5dc:	82 2b       	or	r24, r18
 5de:	8a bb       	out	0x1a, r24	; 26
 5e0:	08 95       	ret
 5e2:	2a b3       	in	r18, 0x1a	; 26
 5e4:	81 e0       	ldi	r24, 0x01	; 1
 5e6:	90 e0       	ldi	r25, 0x00	; 0
 5e8:	02 c0       	rjmp	.+4      	; 0x5ee <DIO_Setpindir+0x3e>
 5ea:	88 0f       	add	r24, r24
 5ec:	99 1f       	adc	r25, r25
 5ee:	6a 95       	dec	r22
 5f0:	e2 f7       	brpl	.-8      	; 0x5ea <DIO_Setpindir+0x3a>
 5f2:	80 95       	com	r24
 5f4:	82 23       	and	r24, r18
 5f6:	8a bb       	out	0x1a, r24	; 26
 5f8:	08 95       	ret
 5fa:	41 30       	cpi	r20, 0x01	; 1
 5fc:	59 f4       	brne	.+22     	; 0x614 <DIO_Setpindir+0x64>
 5fe:	27 b3       	in	r18, 0x17	; 23
 600:	81 e0       	ldi	r24, 0x01	; 1
 602:	90 e0       	ldi	r25, 0x00	; 0
 604:	02 c0       	rjmp	.+4      	; 0x60a <DIO_Setpindir+0x5a>
 606:	88 0f       	add	r24, r24
 608:	99 1f       	adc	r25, r25
 60a:	6a 95       	dec	r22
 60c:	e2 f7       	brpl	.-8      	; 0x606 <DIO_Setpindir+0x56>
 60e:	82 2b       	or	r24, r18
 610:	87 bb       	out	0x17, r24	; 23
 612:	08 95       	ret
 614:	27 b3       	in	r18, 0x17	; 23
 616:	81 e0       	ldi	r24, 0x01	; 1
 618:	90 e0       	ldi	r25, 0x00	; 0
 61a:	02 c0       	rjmp	.+4      	; 0x620 <DIO_Setpindir+0x70>
 61c:	88 0f       	add	r24, r24
 61e:	99 1f       	adc	r25, r25
 620:	6a 95       	dec	r22
 622:	e2 f7       	brpl	.-8      	; 0x61c <DIO_Setpindir+0x6c>
 624:	80 95       	com	r24
 626:	82 23       	and	r24, r18
 628:	87 bb       	out	0x17, r24	; 23
 62a:	08 95       	ret
 62c:	41 30       	cpi	r20, 0x01	; 1
 62e:	59 f4       	brne	.+22     	; 0x646 <DIO_Setpindir+0x96>
 630:	24 b3       	in	r18, 0x14	; 20
 632:	81 e0       	ldi	r24, 0x01	; 1
 634:	90 e0       	ldi	r25, 0x00	; 0
 636:	02 c0       	rjmp	.+4      	; 0x63c <DIO_Setpindir+0x8c>
 638:	88 0f       	add	r24, r24
 63a:	99 1f       	adc	r25, r25
 63c:	6a 95       	dec	r22
 63e:	e2 f7       	brpl	.-8      	; 0x638 <DIO_Setpindir+0x88>
 640:	82 2b       	or	r24, r18
 642:	84 bb       	out	0x14, r24	; 20
 644:	08 95       	ret
 646:	24 b3       	in	r18, 0x14	; 20
 648:	81 e0       	ldi	r24, 0x01	; 1
 64a:	90 e0       	ldi	r25, 0x00	; 0
 64c:	02 c0       	rjmp	.+4      	; 0x652 <DIO_Setpindir+0xa2>
 64e:	88 0f       	add	r24, r24
 650:	99 1f       	adc	r25, r25
 652:	6a 95       	dec	r22
 654:	e2 f7       	brpl	.-8      	; 0x64e <DIO_Setpindir+0x9e>
 656:	80 95       	com	r24
 658:	82 23       	and	r24, r18
 65a:	84 bb       	out	0x14, r24	; 20
 65c:	08 95       	ret
 65e:	41 30       	cpi	r20, 0x01	; 1
 660:	59 f4       	brne	.+22     	; 0x678 <DIO_Setpindir+0xc8>
 662:	21 b3       	in	r18, 0x11	; 17
 664:	81 e0       	ldi	r24, 0x01	; 1
 666:	90 e0       	ldi	r25, 0x00	; 0
 668:	02 c0       	rjmp	.+4      	; 0x66e <DIO_Setpindir+0xbe>
 66a:	88 0f       	add	r24, r24
 66c:	99 1f       	adc	r25, r25
 66e:	6a 95       	dec	r22
 670:	e2 f7       	brpl	.-8      	; 0x66a <DIO_Setpindir+0xba>
 672:	82 2b       	or	r24, r18
 674:	81 bb       	out	0x11, r24	; 17
 676:	08 95       	ret
 678:	21 b3       	in	r18, 0x11	; 17
 67a:	81 e0       	ldi	r24, 0x01	; 1
 67c:	90 e0       	ldi	r25, 0x00	; 0
 67e:	02 c0       	rjmp	.+4      	; 0x684 <DIO_Setpindir+0xd4>
 680:	88 0f       	add	r24, r24
 682:	99 1f       	adc	r25, r25
 684:	6a 95       	dec	r22
 686:	e2 f7       	brpl	.-8      	; 0x680 <DIO_Setpindir+0xd0>
 688:	80 95       	com	r24
 68a:	82 23       	and	r24, r18
 68c:	81 bb       	out	0x11, r24	; 17
 68e:	08 95       	ret

Disassembly of section .text.DIO_Writepin:

00000690 <DIO_Writepin>:
 690:	90 e0       	ldi	r25, 0x00	; 0
 692:	fc 01       	movw	r30, r24
 694:	e1 54       	subi	r30, 0x41	; 65
 696:	f1 09       	sbc	r31, r1
 698:	e4 32       	cpi	r30, 0x24	; 36
 69a:	f1 05       	cpc	r31, r1
 69c:	08 f0       	brcs	.+2      	; 0x6a0 <DIO_Writepin+0x10>
 69e:	67 c0       	rjmp	.+206    	; 0x76e <DIO_Writepin+0xde>
 6a0:	e2 5b       	subi	r30, 0xB2	; 178
 6a2:	ff 4f       	sbci	r31, 0xFF	; 255
 6a4:	0c 94 11 07 	jmp	0xe22	; 0xe22 <__tablejump2__>
 6a8:	41 30       	cpi	r20, 0x01	; 1
 6aa:	59 f4       	brne	.+22     	; 0x6c2 <DIO_Writepin+0x32>
 6ac:	2b b3       	in	r18, 0x1b	; 27
 6ae:	81 e0       	ldi	r24, 0x01	; 1
 6b0:	90 e0       	ldi	r25, 0x00	; 0
 6b2:	02 c0       	rjmp	.+4      	; 0x6b8 <DIO_Writepin+0x28>
 6b4:	88 0f       	add	r24, r24
 6b6:	99 1f       	adc	r25, r25
 6b8:	6a 95       	dec	r22
 6ba:	e2 f7       	brpl	.-8      	; 0x6b4 <DIO_Writepin+0x24>
 6bc:	82 2b       	or	r24, r18
 6be:	8b bb       	out	0x1b, r24	; 27
 6c0:	08 95       	ret
 6c2:	2b b3       	in	r18, 0x1b	; 27
 6c4:	81 e0       	ldi	r24, 0x01	; 1
 6c6:	90 e0       	ldi	r25, 0x00	; 0
 6c8:	02 c0       	rjmp	.+4      	; 0x6ce <DIO_Writepin+0x3e>
 6ca:	88 0f       	add	r24, r24
 6cc:	99 1f       	adc	r25, r25
 6ce:	6a 95       	dec	r22
 6d0:	e2 f7       	brpl	.-8      	; 0x6ca <DIO_Writepin+0x3a>
 6d2:	80 95       	com	r24
 6d4:	82 23       	and	r24, r18
 6d6:	8b bb       	out	0x1b, r24	; 27
 6d8:	08 95       	ret
 6da:	41 30       	cpi	r20, 0x01	; 1
 6dc:	59 f4       	brne	.+22     	; 0x6f4 <DIO_Writepin+0x64>
 6de:	28 b3       	in	r18, 0x18	; 24
 6e0:	81 e0       	ldi	r24, 0x01	; 1
 6e2:	90 e0       	ldi	r25, 0x00	; 0
 6e4:	02 c0       	rjmp	.+4      	; 0x6ea <DIO_Writepin+0x5a>
 6e6:	88 0f       	add	r24, r24
 6e8:	99 1f       	adc	r25, r25
 6ea:	6a 95       	dec	r22
 6ec:	e2 f7       	brpl	.-8      	; 0x6e6 <DIO_Writepin+0x56>
 6ee:	82 2b       	or	r24, r18
 6f0:	88 bb       	out	0x18, r24	; 24
 6f2:	08 95       	ret
 6f4:	28 b3       	in	r18, 0x18	; 24
 6f6:	81 e0       	ldi	r24, 0x01	; 1
 6f8:	90 e0       	ldi	r25, 0x00	; 0
 6fa:	02 c0       	rjmp	.+4      	; 0x700 <DIO_Writepin+0x70>
 6fc:	88 0f       	add	r24, r24
 6fe:	99 1f       	adc	r25, r25
 700:	6a 95       	dec	r22
 702:	e2 f7       	brpl	.-8      	; 0x6fc <DIO_Writepin+0x6c>
 704:	80 95       	com	r24
 706:	82 23       	and	r24, r18
 708:	88 bb       	out	0x18, r24	; 24
 70a:	08 95       	ret
 70c:	41 30       	cpi	r20, 0x01	; 1
 70e:	59 f4       	brne	.+22     	; 0x726 <DIO_Writepin+0x96>
 710:	25 b3       	in	r18, 0x15	; 21
 712:	81 e0       	ldi	r24, 0x01	; 1
 714:	90 e0       	ldi	r25, 0x00	; 0
 716:	02 c0       	rjmp	.+4      	; 0x71c <DIO_Writepin+0x8c>
 718:	88 0f       	add	r24, r24
 71a:	99 1f       	adc	r25, r25
 71c:	6a 95       	dec	r22
 71e:	e2 f7       	brpl	.-8      	; 0x718 <DIO_Writepin+0x88>
 720:	82 2b       	or	r24, r18
 722:	85 bb       	out	0x15, r24	; 21
 724:	08 95       	ret
 726:	25 b3       	in	r18, 0x15	; 21
 728:	81 e0       	ldi	r24, 0x01	; 1
 72a:	90 e0       	ldi	r25, 0x00	; 0
 72c:	02 c0       	rjmp	.+4      	; 0x732 <DIO_Writepin+0xa2>
 72e:	88 0f       	add	r24, r24
 730:	99 1f       	adc	r25, r25
 732:	6a 95       	dec	r22
 734:	e2 f7       	brpl	.-8      	; 0x72e <DIO_Writepin+0x9e>
 736:	80 95       	com	r24
 738:	82 23       	and	r24, r18
 73a:	85 bb       	out	0x15, r24	; 21
 73c:	08 95       	ret
 73e:	41 30       	cpi	r20, 0x01	; 1
 740:	59 f4       	brne	.+22     	; 0x758 <DIO_Writepin+0xc8>
 742:	22 b3       	in	r18, 0x12	; 18
 744:	81 e0       	ldi	r24, 0x01	; 1
 746:	90 e0       	ldi	r25, 0x00	; 0
 748:	02 c0       	rjmp	.+4      	; 0x74e <DIO_Writepin+0xbe>
 74a:	88 0f       	add	r24, r24
 74c:	99 1f       	adc	r25, r25
 74e:	6a 95       	dec	r22
 750:	e2 f7       	brpl	.-8      	; 0x74a <DIO_Writepin+0xba>
 752:	82 2b       	or	r24, r18
 754:	82 bb       	out	0x12, r24	; 18
 756:	08 95       	ret
 758:	22 b3       	in	r18, 0x12	; 18
 75a:	81 e0       	ldi	r24, 0x01	; 1
 75c:	90 e0       	ldi	r25, 0x00	; 0
 75e:	02 c0       	rjmp	.+4      	; 0x764 <DIO_Writepin+0xd4>
 760:	88 0f       	add	r24, r24
 762:	99 1f       	adc	r25, r25
 764:	6a 95       	dec	r22
 766:	e2 f7       	brpl	.-8      	; 0x760 <DIO_Writepin+0xd0>
 768:	80 95       	com	r24
 76a:	82 23       	and	r24, r18
 76c:	82 bb       	out	0x12, r24	; 18
 76e:	08 95       	ret

Disassembly of section .text.DIO_Readpin:

00000770 <DIO_Readpin>:
 770:	0f 93       	push	r16
 772:	1f 93       	push	r17
 774:	08 2f       	mov	r16, r24
 776:	10 e0       	ldi	r17, 0x00	; 0
 778:	f8 01       	movw	r30, r16
 77a:	e1 54       	subi	r30, 0x41	; 65
 77c:	f1 09       	sbc	r31, r1
 77e:	e4 32       	cpi	r30, 0x24	; 36
 780:	f1 05       	cpc	r31, r1
 782:	08 f0       	brcs	.+2      	; 0x786 <DIO_Readpin+0x16>
 784:	57 c0       	rjmp	.+174    	; 0x834 <__DATA_REGION_LENGTH__+0x34>
 786:	ee 58       	subi	r30, 0x8E	; 142
 788:	ff 4f       	sbci	r31, 0xFF	; 255
 78a:	0c 94 11 07 	jmp	0xe22	; 0xe22 <__tablejump2__>
 78e:	49 b3       	in	r20, 0x19	; 25
 790:	81 e0       	ldi	r24, 0x01	; 1
 792:	90 e0       	ldi	r25, 0x00	; 0
 794:	9c 01       	movw	r18, r24
 796:	06 2e       	mov	r0, r22
 798:	02 c0       	rjmp	.+4      	; 0x79e <DIO_Readpin+0x2e>
 79a:	22 0f       	add	r18, r18
 79c:	33 1f       	adc	r19, r19
 79e:	0a 94       	dec	r0
 7a0:	e2 f7       	brpl	.-8      	; 0x79a <DIO_Readpin+0x2a>
 7a2:	84 2f       	mov	r24, r20
 7a4:	90 e0       	ldi	r25, 0x00	; 0
 7a6:	82 23       	and	r24, r18
 7a8:	93 23       	and	r25, r19
 7aa:	02 c0       	rjmp	.+4      	; 0x7b0 <DIO_Readpin+0x40>
 7ac:	96 95       	lsr	r25
 7ae:	87 95       	ror	r24
 7b0:	6a 95       	dec	r22
 7b2:	e2 f7       	brpl	.-8      	; 0x7ac <DIO_Readpin+0x3c>
 7b4:	98 2f       	mov	r25, r24
 7b6:	3e c0       	rjmp	.+124    	; 0x834 <__DATA_REGION_LENGTH__+0x34>
 7b8:	46 b3       	in	r20, 0x16	; 22
 7ba:	81 e0       	ldi	r24, 0x01	; 1
 7bc:	90 e0       	ldi	r25, 0x00	; 0
 7be:	9c 01       	movw	r18, r24
 7c0:	06 2e       	mov	r0, r22
 7c2:	02 c0       	rjmp	.+4      	; 0x7c8 <DIO_Readpin+0x58>
 7c4:	22 0f       	add	r18, r18
 7c6:	33 1f       	adc	r19, r19
 7c8:	0a 94       	dec	r0
 7ca:	e2 f7       	brpl	.-8      	; 0x7c4 <DIO_Readpin+0x54>
 7cc:	84 2f       	mov	r24, r20
 7ce:	90 e0       	ldi	r25, 0x00	; 0
 7d0:	82 23       	and	r24, r18
 7d2:	93 23       	and	r25, r19
 7d4:	02 c0       	rjmp	.+4      	; 0x7da <DIO_Readpin+0x6a>
 7d6:	96 95       	lsr	r25
 7d8:	87 95       	ror	r24
 7da:	6a 95       	dec	r22
 7dc:	e2 f7       	brpl	.-8      	; 0x7d6 <DIO_Readpin+0x66>
 7de:	98 2f       	mov	r25, r24
 7e0:	29 c0       	rjmp	.+82     	; 0x834 <__DATA_REGION_LENGTH__+0x34>
 7e2:	43 b3       	in	r20, 0x13	; 19
 7e4:	81 e0       	ldi	r24, 0x01	; 1
 7e6:	90 e0       	ldi	r25, 0x00	; 0
 7e8:	9c 01       	movw	r18, r24
 7ea:	06 2e       	mov	r0, r22
 7ec:	02 c0       	rjmp	.+4      	; 0x7f2 <DIO_Readpin+0x82>
 7ee:	22 0f       	add	r18, r18
 7f0:	33 1f       	adc	r19, r19
 7f2:	0a 94       	dec	r0
 7f4:	e2 f7       	brpl	.-8      	; 0x7ee <DIO_Readpin+0x7e>
 7f6:	84 2f       	mov	r24, r20
 7f8:	90 e0       	ldi	r25, 0x00	; 0
 7fa:	82 23       	and	r24, r18
 7fc:	93 23       	and	r25, r19
 7fe:	02 c0       	rjmp	.+4      	; 0x804 <__DATA_REGION_LENGTH__+0x4>
 800:	96 95       	lsr	r25
 802:	87 95       	ror	r24
 804:	6a 95       	dec	r22
 806:	e2 f7       	brpl	.-8      	; 0x800 <__DATA_REGION_LENGTH__>
 808:	98 2f       	mov	r25, r24
 80a:	14 c0       	rjmp	.+40     	; 0x834 <__DATA_REGION_LENGTH__+0x34>
 80c:	40 b3       	in	r20, 0x10	; 16
 80e:	81 e0       	ldi	r24, 0x01	; 1
 810:	90 e0       	ldi	r25, 0x00	; 0
 812:	9c 01       	movw	r18, r24
 814:	06 2e       	mov	r0, r22
 816:	02 c0       	rjmp	.+4      	; 0x81c <__DATA_REGION_LENGTH__+0x1c>
 818:	22 0f       	add	r18, r18
 81a:	33 1f       	adc	r19, r19
 81c:	0a 94       	dec	r0
 81e:	e2 f7       	brpl	.-8      	; 0x818 <__DATA_REGION_LENGTH__+0x18>
 820:	84 2f       	mov	r24, r20
 822:	90 e0       	ldi	r25, 0x00	; 0
 824:	82 23       	and	r24, r18
 826:	93 23       	and	r25, r19
 828:	02 c0       	rjmp	.+4      	; 0x82e <__DATA_REGION_LENGTH__+0x2e>
 82a:	96 95       	lsr	r25
 82c:	87 95       	ror	r24
 82e:	6a 95       	dec	r22
 830:	e2 f7       	brpl	.-8      	; 0x82a <__DATA_REGION_LENGTH__+0x2a>
 832:	98 2f       	mov	r25, r24
 834:	89 2f       	mov	r24, r25
 836:	1f 91       	pop	r17
 838:	0f 91       	pop	r16
 83a:	08 95       	ret

Disassembly of section .text.LED_Init:

00000e36 <LED_Init>:
 e36:	41 e0       	ldi	r20, 0x01	; 1
 e38:	0e 94 d8 02 	call	0x5b0	; 0x5b0 <DIO_Setpindir>
 e3c:	08 95       	ret

Disassembly of section .text.LED_On:

00000e3e <LED_On>:
 e3e:	41 e0       	ldi	r20, 0x01	; 1
 e40:	0e 94 48 03 	call	0x690	; 0x690 <DIO_Writepin>
 e44:	08 95       	ret

Disassembly of section .text.LED_Off:

00000e46 <LED_Off>:
 e46:	40 e0       	ldi	r20, 0x00	; 0
 e48:	0e 94 48 03 	call	0x690	; 0x690 <DIO_Writepin>
 e4c:	08 95       	ret

Disassembly of section .text.read_sensor_filtered:

00000c9c <read_sensor_filtered>:
 *
 * This eliminates single-sample noise spikes caused by vibration,
 * electrical interference, or imperfect tape edges.
 */
static unsigned char read_sensor_filtered(char port, unsigned char pin)
{
 c9c:	0f 93       	push	r16
 c9e:	1f 93       	push	r17
 ca0:	cf 93       	push	r28
 ca2:	df 93       	push	r29
 ca4:	18 2f       	mov	r17, r24
 ca6:	d6 2f       	mov	r29, r22
    unsigned char count_high = 0;
    for (unsigned char i = 0; i < SENSOR_SAMPLES; i++)
 ca8:	c0 e0       	ldi	r28, 0x00	; 0
 * This eliminates single-sample noise spikes caused by vibration,
 * electrical interference, or imperfect tape edges.
 */
static unsigned char read_sensor_filtered(char port, unsigned char pin)
{
    unsigned char count_high = 0;
 caa:	00 e0       	ldi	r16, 0x00	; 0
    for (unsigned char i = 0; i < SENSOR_SAMPLES; i++)
 cac:	0c c0       	rjmp	.+24     	; 0xcc6 <read_sensor_filtered+0x2a>
    {
        if (Button_Read(port, pin) == 1)
 cae:	6d 2f       	mov	r22, r29
 cb0:	81 2f       	mov	r24, r17
 cb2:	0e 94 2f 07 	call	0xe5e	; 0xe5e <Button_Read>
 cb6:	81 30       	cpi	r24, 0x01	; 1
 cb8:	09 f4       	brne	.+2      	; 0xcbc <read_sensor_filtered+0x20>
            count_high++;
 cba:	0f 5f       	subi	r16, 0xFF	; 255
	#else
		//round up by default
		__ticks_dc = (uint32_t)(ceil(fabs(__tmp)));
	#endif

	__builtin_avr_delay_cycles(__ticks_dc);
 cbc:	8a e6       	ldi	r24, 0x6A	; 106
 cbe:	8a 95       	dec	r24
 cc0:	f1 f7       	brne	.-4      	; 0xcbe <read_sensor_filtered+0x22>
 cc2:	00 c0       	rjmp	.+0      	; 0xcc4 <read_sensor_filtered+0x28>
 * electrical interference, or imperfect tape edges.
 */
static unsigned char read_sensor_filtered(char port, unsigned char pin)
{
    unsigned char count_high = 0;
    for (unsigned char i = 0; i < SENSOR_SAMPLES; i++)
 cc4:	cf 5f       	subi	r28, 0xFF	; 255
 cc6:	c5 30       	cpi	r28, 0x05	; 5
 cc8:	90 f3       	brcs	.-28     	; 0xcae <read_sensor_filtered+0x12>
    {
        if (Button_Read(port, pin) == 1)
            count_high++;
        _delay_us(40);   /* ~200 µs total per sensor — fast enough  */
    }
    return (count_high > (SENSOR_SAMPLES / 2)) ? 1 : 0;
 cca:	81 e0       	ldi	r24, 0x01	; 1
 ccc:	03 30       	cpi	r16, 0x03	; 3
 cce:	08 f4       	brcc	.+2      	; 0xcd2 <read_sensor_filtered+0x36>
 cd0:	80 e0       	ldi	r24, 0x00	; 0
}
 cd2:	df 91       	pop	r29
 cd4:	cf 91       	pop	r28
 cd6:	1f 91       	pop	r17
 cd8:	0f 91       	pop	r16
 cda:	08 95       	ret

Disassembly of section .text.read_all_sensors:

00000bbc <read_all_sensors>:
 * Reads all four IR sensors (front-left, front-right, back-left,
 * back-right) with filtering.  Populates caller-supplied pointers.
 */
static void read_all_sensors(unsigned char *fl, unsigned char *fr,
                              unsigned char *bl, unsigned char *br)
{
 bbc:	cf 92       	push	r12
 bbe:	df 92       	push	r13
 bc0:	ef 92       	push	r14
 bc2:	ff 92       	push	r15
 bc4:	0f 93       	push	r16
 bc6:	1f 93       	push	r17
 bc8:	cf 93       	push	r28
 bca:	df 93       	push	r29
 bcc:	6c 01       	movw	r12, r24
 bce:	7b 01       	movw	r14, r22
 bd0:	8a 01       	movw	r16, r20
 bd2:	e9 01       	movw	r28, r18
    *fl = read_sensor_filtered('D', 3);   /* front-left              */
 bd4:	63 e0       	ldi	r22, 0x03	; 3
 bd6:	84 e4       	ldi	r24, 0x44	; 68
 bd8:	0e 94 4e 06 	call	0xc9c	; 0xc9c <read_sensor_filtered>
 bdc:	f6 01       	movw	r30, r12
 bde:	80 83       	st	Z, r24
    *fr = read_sensor_filtered('D', 4);   /* front-right             */
 be0:	64 e0       	ldi	r22, 0x04	; 4
 be2:	84 e4       	ldi	r24, 0x44	; 68
 be4:	0e 94 4e 06 	call	0xc9c	; 0xc9c <read_sensor_filtered>
 be8:	f7 01       	movw	r30, r14
 bea:	80 83       	st	Z, r24
    *bl = read_sensor_filtered('D', 5);   /* back-left               */
 bec:	65 e0       	ldi	r22, 0x05	; 5
 bee:	84 e4       	ldi	r24, 0x44	; 68
 bf0:	0e 94 4e 06 	call	0xc9c	; 0xc9c <read_sensor_filtered>
 bf4:	f8 01       	movw	r30, r16
 bf6:	80 83       	st	Z, r24
    *br = read_sensor_filtered('D', 6);   /* back-right              */
 bf8:	66 e0       	ldi	r22, 0x06	; 6
 bfa:	84 e4       	ldi	r24, 0x44	; 68
 bfc:	0e 94 4e 06 	call	0xc9c	; 0xc9c <read_sensor_filtered>
 c00:	88 83       	st	Y, r24
}
 c02:	df 91       	pop	r29
 c04:	cf 91       	pop	r28
 c06:	1f 91       	pop	r17
 c08:	0f 91       	pop	r16
 c0a:	ff 90       	pop	r15
 c0c:	ef 90       	pop	r14
 c0e:	df 90       	pop	r13
 c10:	cf 90       	pop	r12
 c12:	08 95       	ret

Disassembly of section .text.Decide_Movement:

0000045c <Decide_Movement>:
 *   1  if a confirmed intersection (both sensors BLACK) was detected
 *      (caller should stop and send 's').
 *   0  otherwise (keep looping).
 * =========================================================*/
int Decide_Movement(void)
{
 45c:	cf 93       	push	r28
 45e:	df 93       	push	r29
 460:	00 d0       	rcall	.+0      	; 0x462 <Decide_Movement+0x6>
 462:	00 d0       	rcall	.+0      	; 0x464 <Decide_Movement+0x8>
 464:	cd b7       	in	r28, 0x3d	; 61
 466:	de b7       	in	r29, 0x3e	; 62
    unsigned char fl, fr, bl, br;
    read_all_sensors(&fl, &fr, &bl, &br);
 468:	9e 01       	movw	r18, r28
 46a:	2c 5f       	subi	r18, 0xFC	; 252
 46c:	3f 4f       	sbci	r19, 0xFF	; 255
 46e:	ae 01       	movw	r20, r28
 470:	4d 5f       	subi	r20, 0xFD	; 253
 472:	5f 4f       	sbci	r21, 0xFF	; 255
 474:	be 01       	movw	r22, r28
 476:	6e 5f       	subi	r22, 0xFE	; 254
 478:	7f 4f       	sbci	r23, 0xFF	; 255
 47a:	ce 01       	movw	r24, r28
 47c:	01 96       	adiw	r24, 0x01	; 1
 47e:	0e 94 de 05 	call	0xbbc	; 0xbbc <read_all_sensors>

    /* ── INTERSECTION: both front sensors detect black ──────────── */
    if (fl == 1 && fr == 1)
 482:	89 81       	ldd	r24, Y+1	; 0x01
 484:	81 30       	cpi	r24, 0x01	; 1
 486:	d1 f4       	brne	.+52     	; 0x4bc <Decide_Movement+0x60>
 488:	9a 81       	ldd	r25, Y+2	; 0x02
 48a:	91 30       	cpi	r25, 0x01	; 1
 48c:	b9 f4       	brne	.+46     	; 0x4bc <Decide_Movement+0x60>
    {
        fwd_confirm_count++;
 48e:	80 91 64 00 	lds	r24, 0x0064	; 0x800064 <fwd_confirm_count>
 492:	8f 5f       	subi	r24, 0xFF	; 255
 494:	80 93 64 00 	sts	0x0064, r24	; 0x800064 <fwd_confirm_count>
        if (fwd_confirm_count >= CONFIRM_CYCLES)
 498:	82 30       	cpi	r24, 0x02	; 2
 49a:	58 f0       	brcs	.+22     	; 0x4b2 <Decide_Movement+0x56>
        {
            /* Confirmed intersection — caller handles stop + UART.  */
            fwd_confirm_count = 0;
 49c:	10 92 64 00 	sts	0x0064, r1	; 0x800064 <fwd_confirm_count>
            line_lost_count   = 0;
 4a0:	10 92 62 00 	sts	0x0062, r1	; 0x800062 <line_lost_count>
            last_direction    = 0;
 4a4:	10 92 65 00 	sts	0x0065, r1	; 0x800065 <last_direction>
            Stop();
 4a8:	0e 94 b1 05 	call	0xb62	; 0xb62 <Stop>
            return 1;
 4ac:	81 e0       	ldi	r24, 0x01	; 1
 4ae:	90 e0       	ldi	r25, 0x00	; 0
 4b0:	78 c0       	rjmp	.+240    	; 0x5a2 <Decide_Movement+0x146>
        }
        /* Not confirmed yet — keep last motion to glide through.    */
        Move_Up_Straight();
 4b2:	0e 94 a3 04 	call	0x946	; 0x946 <Move_Up_Straight>
        return 0;
 4b6:	80 e0       	ldi	r24, 0x00	; 0
 4b8:	90 e0       	ldi	r25, 0x00	; 0
 4ba:	73 c0       	rjmp	.+230    	; 0x5a2 <Decide_Movement+0x146>
    }
    fwd_confirm_count = 0;   /* reset if no longer both-black        */
 4bc:	10 92 64 00 	sts	0x0064, r1	; 0x800064 <fwd_confirm_count>

    /* ── LEFT DEVIATION: left sensor on line, right off ─────────── */
    if (fl == 1 && fr == 0)
 4c0:	81 30       	cpi	r24, 0x01	; 1
 4c2:	79 f4       	brne	.+30     	; 0x4e2 <Decide_Movement+0x86>
 4c4:	9a 81       	ldd	r25, Y+2	; 0x02
 4c6:	91 11       	cpse	r25, r1
 4c8:	0c c0       	rjmp	.+24     	; 0x4e2 <Decide_Movement+0x86>
    {
        last_direction  = -1;   /* line is to the left               */
 4ca:	8f ef       	ldi	r24, 0xFF	; 255
 4cc:	80 93 65 00 	sts	0x0065, r24	; 0x800065 <last_direction>
        line_lost_count = 0;
 4d0:	10 92 62 00 	sts	0x0062, r1	; 0x800062 <line_lost_count>
        recovery_sweep  = 0;
 4d4:	10 92 61 00 	sts	0x0061, r1	; 0x800061 <recovery_sweep>
        /* Soft left correction: left wheel slower, right faster.    */
        Move_Correct_Left();
 4d8:	0e 94 d0 04 	call	0x9a0	; 0x9a0 <Move_Correct_Left>
        return 0;
 4dc:	80 e0       	ldi	r24, 0x00	; 0
 4de:	90 e0       	ldi	r25, 0x00	; 0
 4e0:	60 c0       	rjmp	.+192    	; 0x5a2 <Decide_Movement+0x146>
    }

    /* ── RIGHT DEVIATION: right sensor on line, left off ────────── */
    if (fl == 0 && fr == 1)
 4e2:	81 11       	cpse	r24, r1
 4e4:	0e c0       	rjmp	.+28     	; 0x502 <Decide_Movement+0xa6>
 4e6:	8a 81       	ldd	r24, Y+2	; 0x02
 4e8:	81 30       	cpi	r24, 0x01	; 1
 4ea:	59 f4       	brne	.+22     	; 0x502 <Decide_Movement+0xa6>
    {
        last_direction  = +1;   /* line is to the right              */
 4ec:	80 93 65 00 	sts	0x0065, r24	; 0x800065 <last_direction>
        line_lost_count = 0;
 4f0:	10 92 62 00 	sts	0x0062, r1	; 0x800062 <line_lost_count>
        recovery_sweep  = 0;
 4f4:	10 92 61 00 	sts	0x0061, r1	; 0x800061 <recovery_sweep>
        Move_Correct_Right();
 4f8:	0e 94 fd 04 	call	0x9fa	; 0x9fa <Move_Correct_Right>
        return 0;
 4fc:	80 e0       	ldi	r24, 0x00	; 0
 4fe:	90 e0       	ldi	r25, 0x00	; 0
 500:	50 c0       	rjmp	.+160    	; 0x5a2 <Decide_Movement+0x146>
    }

    /* ── LINE LOST: both sensors off line ───────────────────────── */
    /* (fl == 0 && fr == 0)                                          */
    line_lost_count++;
 502:	80 91 62 00 	lds	r24, 0x0062	; 0x800062 <line_lost_count>
 506:	8f 5f       	subi	r24, 0xFF	; 255
 508:	80 93 62 00 	sts	0x0062, r24	; 0x800062 <line_lost_count>

    if (line_lost_count < RECOVERY_THRESHOLD)
 50c:	80 35       	cpi	r24, 0x50	; 80
 50e:	a8 f4       	brcc	.+42     	; 0x53a <Decide_Movement+0xde>
    {
        /* Phase 1: bias correction — steer toward last known side.  */
        if (last_direction < 0)
 510:	80 91 65 00 	lds	r24, 0x0065	; 0x800065 <last_direction>
 514:	88 23       	and	r24, r24
 516:	2c f4       	brge	.+10     	; 0x522 <Decide_Movement+0xc6>
            Move_Correct_Left();    /* lean left, we last saw it left */
 518:	0e 94 d0 04 	call	0x9a0	; 0x9a0 <Move_Correct_Left>
        else if (last_direction > 0)
            Move_Correct_Right();   /* lean right                    */
        else
            Move_Up_Straight();     /* no bias — go straight         */
        return 0;
 51c:	80 e0       	ldi	r24, 0x00	; 0
 51e:	90 e0       	ldi	r25, 0x00	; 0
 520:	40 c0       	rjmp	.+128    	; 0x5a2 <Decide_Movement+0x146>
    if (line_lost_count < RECOVERY_THRESHOLD)
    {
        /* Phase 1: bias correction — steer toward last known side.  */
        if (last_direction < 0)
            Move_Correct_Left();    /* lean left, we last saw it left */
        else if (last_direction > 0)
 522:	18 16       	cp	r1, r24
 524:	2c f4       	brge	.+10     	; 0x530 <Decide_Movement+0xd4>
            Move_Correct_Right();   /* lean right                    */
 526:	0e 94 fd 04 	call	0x9fa	; 0x9fa <Move_Correct_Right>
        else
            Move_Up_Straight();     /* no bias — go straight         */
        return 0;
 52a:	80 e0       	ldi	r24, 0x00	; 0
 52c:	90 e0       	ldi	r25, 0x00	; 0
 52e:	39 c0       	rjmp	.+114    	; 0x5a2 <Decide_Movement+0x146>
        if (last_direction < 0)
            Move_Correct_Left();    /* lean left, we last saw it left */
        else if (last_direction > 0)
            Move_Correct_Right();   /* lean right                    */
        else
            Move_Up_Straight();     /* no bias — go straight         */
 530:	0e 94 a3 04 	call	0x946	; 0x946 <Move_Up_Straight>
        return 0;
 534:	80 e0       	ldi	r24, 0x00	; 0
 536:	90 e0       	ldi	r25, 0x00	; 0
 538:	34 c0       	rjmp	.+104    	; 0x5a2 <Decide_Movement+0x146>
    }

    /* Phase 2: active recovery sweeps.                              */
    recovery_cycle_count++;
 53a:	80 91 60 00 	lds	r24, 0x0060	; 0x800060 <__DATA_REGION_ORIGIN__>
 53e:	8f 5f       	subi	r24, 0xFF	; 255
 540:	80 93 60 00 	sts	0x0060, r24	; 0x800060 <__DATA_REGION_ORIGIN__>
    if (recovery_cycle_count >= RECOVERY_SWEEP_CYCLES)
 544:	88 32       	cpi	r24, 0x28	; 40
 546:	70 f0       	brcs	.+28     	; 0x564 <Decide_Movement+0x108>
    {
        recovery_cycle_count = 0;
 548:	10 92 60 00 	sts	0x0060, r1	; 0x800060 <__DATA_REGION_ORIGIN__>
        recovery_sweep++;
 54c:	80 91 61 00 	lds	r24, 0x0061	; 0x800061 <recovery_sweep>
 550:	8f 5f       	subi	r24, 0xFF	; 255
 552:	80 93 61 00 	sts	0x0061, r24	; 0x800061 <recovery_sweep>
        if (recovery_sweep > MAX_RECOVERY_SWEEPS)
 556:	87 30       	cpi	r24, 0x07	; 7
 558:	28 f0       	brcs	.+10     	; 0x564 <Decide_Movement+0x108>
        {
            /* Fail-safe: just drive straight and hope to re-acquire.*/
            Move_Up_Straight();
 55a:	0e 94 a3 04 	call	0x946	; 0x946 <Move_Up_Straight>
            return 0;
 55e:	80 e0       	ldi	r24, 0x00	; 0
 560:	90 e0       	ldi	r25, 0x00	; 0
 562:	1f c0       	rjmp	.+62     	; 0x5a2 <Decide_Movement+0x146>
        }
    }

    /* Alternate sweep direction based on last_direction.
     * Even sweeps turn toward last_direction, odd sweeps opposite.  */
    if ((recovery_sweep % 2) == 0)
 564:	80 91 61 00 	lds	r24, 0x0061	; 0x800061 <recovery_sweep>
 568:	80 fd       	sbrc	r24, 0
 56a:	0e c0       	rjmp	.+28     	; 0x588 <Decide_Movement+0x12c>
    {
        if (last_direction >= 0) Move_Correct_Right();
 56c:	80 91 65 00 	lds	r24, 0x0065	; 0x800065 <last_direction>
 570:	88 23       	and	r24, r24
 572:	2c f0       	brlt	.+10     	; 0x57e <Decide_Movement+0x122>
 574:	0e 94 fd 04 	call	0x9fa	; 0x9fa <Move_Correct_Right>
    {
        if (last_direction >= 0) Move_Correct_Left();
        else                     Move_Correct_Right();
    }

    return 0;
 578:	80 e0       	ldi	r24, 0x00	; 0
 57a:	90 e0       	ldi	r25, 0x00	; 0
 57c:	12 c0       	rjmp	.+36     	; 0x5a2 <Decide_Movement+0x146>
    /* Alternate sweep direction based on last_direction.
     * Even sweeps turn toward last_direction, odd sweeps opposite.  */
    if ((recovery_sweep % 2) == 0)
    {
        if (last_direction >= 0) Move_Correct_Right();
        else                     Move_Correct_Left();
 57e:	0e 94 d0 04 	call	0x9a0	; 0x9a0 <Move_Correct_Left>
    {
        if (last_direction >= 0) Move_Correct_Left();
        else                     Move_Correct_Right();
    }

    return 0;
 582:	80 e0       	ldi	r24, 0x00	; 0
 584:	90 e0       	ldi	r25, 0x00	; 0
 586:	0d c0       	rjmp	.+26     	; 0x5a2 <Decide_Movement+0x146>
        if (last_direction >= 0) Move_Correct_Right();
        else                     Move_Correct_Left();
    }
    else
    {
        if (last_direction >= 0) Move_Correct_Left();
 588:	80 91 65 00 	lds	r24, 0x0065	; 0x800065 <last_direction>
 58c:	88 23       	and	r24, r24
 58e:	2c f0       	brlt	.+10     	; 0x59a <Decide_Movement+0x13e>
 590:	0e 94 d0 04 	call	0x9a0	; 0x9a0 <Move_Correct_Left>
        else                     Move_Correct_Right();
    }

    return 0;
 594:	80 e0       	ldi	r24, 0x00	; 0
 596:	90 e0       	ldi	r25, 0x00	; 0
 598:	04 c0       	rjmp	.+8      	; 0x5a2 <Decide_Movement+0x146>
        else                     Move_Correct_Left();
    }
    else
    {
        if (last_direction >= 0) Move_Correct_Left();
        else                     Move_Correct_Right();
 59a:	0e 94 fd 04 	call	0x9fa	; 0x9fa <Move_Correct_Right>
    }

    return 0;
 59e:	80 e0       	ldi	r24, 0x00	; 0
 5a0:	90 e0       	ldi	r25, 0x00	; 0
}
 5a2:	0f 90       	pop	r0
 5a4:	0f 90       	pop	r0
 5a6:	0f 90       	pop	r0
 5a8:	0f 90       	pop	r0
 5aa:	df 91       	pop	r29
 5ac:	cf 91       	pop	r28
 5ae:	08 95       	ret

Disassembly of section .text.Back_Decide_Movement:

0000083c <Back_Decide_Movement>:
 * Returns:
 *   1  if a confirmed front-sensor intersection was detected.
 *   0  otherwise.
 * =========================================================*/
int Back_Decide_Movement(void)
{
 83c:	cf 93       	push	r28
 83e:	df 93       	push	r29
 840:	00 d0       	rcall	.+0      	; 0x842 <Back_Decide_Movement+0x6>
 842:	00 d0       	rcall	.+0      	; 0x844 <Back_Decide_Movement+0x8>
 844:	cd b7       	in	r28, 0x3d	; 61
 846:	de b7       	in	r29, 0x3e	; 62
    unsigned char fl, fr, bl, br;
    read_all_sensors(&fl, &fr, &bl, &br);
 848:	9e 01       	movw	r18, r28
 84a:	2c 5f       	subi	r18, 0xFC	; 252
 84c:	3f 4f       	sbci	r19, 0xFF	; 255
 84e:	ae 01       	movw	r20, r28
 850:	4d 5f       	subi	r20, 0xFD	; 253
 852:	5f 4f       	sbci	r21, 0xFF	; 255
 854:	be 01       	movw	r22, r28
 856:	6e 5f       	subi	r22, 0xFE	; 254
 858:	7f 4f       	sbci	r23, 0xFF	; 255
 85a:	ce 01       	movw	r24, r28
 85c:	01 96       	adiw	r24, 0x01	; 1
 85e:	0e 94 de 05 	call	0xbbc	; 0xbbc <read_all_sensors>

    /* ── FRONT INTERSECTION (used by caller to stop) ────────────── */
    if (fl == 1 && fr == 1)
 862:	89 81       	ldd	r24, Y+1	; 0x01
 864:	81 30       	cpi	r24, 0x01	; 1
 866:	b1 f4       	brne	.+44     	; 0x894 <__stack+0x35>
 868:	8a 81       	ldd	r24, Y+2	; 0x02
 86a:	81 30       	cpi	r24, 0x01	; 1
 86c:	99 f4       	brne	.+38     	; 0x894 <__stack+0x35>
    {
        bwd_confirm_count++;
 86e:	80 91 63 00 	lds	r24, 0x0063	; 0x800063 <bwd_confirm_count>
 872:	8f 5f       	subi	r24, 0xFF	; 255
 874:	80 93 63 00 	sts	0x0063, r24	; 0x800063 <bwd_confirm_count>
        if (bwd_confirm_count >= CONFIRM_CYCLES)
 878:	82 30       	cpi	r24, 0x02	; 2
 87a:	38 f0       	brcs	.+14     	; 0x88a <__stack+0x2b>
        {
            bwd_confirm_count = 0;
 87c:	10 92 63 00 	sts	0x0063, r1	; 0x800063 <bwd_confirm_count>
            Stop();
 880:	0e 94 b1 05 	call	0xb62	; 0xb62 <Stop>
            return 1;
 884:	81 e0       	ldi	r24, 0x01	; 1
 886:	90 e0       	ldi	r25, 0x00	; 0
 888:	2a c0       	rjmp	.+84     	; 0x8de <__stack+0x7f>
        }
        Move_Down_Straight();
 88a:	0e 94 2a 05 	call	0xa54	; 0xa54 <Move_Down_Straight>
        return 0;
 88e:	80 e0       	ldi	r24, 0x00	; 0
 890:	90 e0       	ldi	r25, 0x00	; 0
 892:	25 c0       	rjmp	.+74     	; 0x8de <__stack+0x7f>
    }
    bwd_confirm_count = 0;
 894:	10 92 63 00 	sts	0x0063, r1	; 0x800063 <bwd_confirm_count>

    /* ── BACK SENSORS steer while reversing ─────────────────────── */
    if (bl == 1 && br == 0)
 898:	8b 81       	ldd	r24, Y+3	; 0x03
 89a:	81 30       	cpi	r24, 0x01	; 1
 89c:	41 f4       	brne	.+16     	; 0x8ae <__stack+0x4f>
 89e:	9c 81       	ldd	r25, Y+4	; 0x04
 8a0:	91 11       	cpse	r25, r1
 8a2:	05 c0       	rjmp	.+10     	; 0x8ae <__stack+0x4f>
    {
        /* Back-left on line → robot drifting right → correct left.  */
        Move_Correct_Left();
 8a4:	0e 94 d0 04 	call	0x9a0	; 0x9a0 <Move_Correct_Left>
        return 0;
 8a8:	80 e0       	ldi	r24, 0x00	; 0
 8aa:	90 e0       	ldi	r25, 0x00	; 0
 8ac:	18 c0       	rjmp	.+48     	; 0x8de <__stack+0x7f>
    }
    if (bl == 0 && br == 1)
 8ae:	81 11       	cpse	r24, r1
 8b0:	08 c0       	rjmp	.+16     	; 0x8c2 <__stack+0x63>
 8b2:	9c 81       	ldd	r25, Y+4	; 0x04
 8b4:	91 30       	cpi	r25, 0x01	; 1
 8b6:	29 f4       	brne	.+10     	; 0x8c2 <__stack+0x63>
    {
        /* Back-right on line → robot drifting left → correct right. */
        Move_Correct_Right();
 8b8:	0e 94 fd 04 	call	0x9fa	; 0x9fa <Move_Correct_Right>
        return 0;
 8bc:	80 e0       	ldi	r24, 0x00	; 0
 8be:	90 e0       	ldi	r25, 0x00	; 0
 8c0:	0e c0       	rjmp	.+28     	; 0x8de <__stack+0x7f>
    }
    if (bl == 1 && br == 1)
 8c2:	81 30       	cpi	r24, 0x01	; 1
 8c4:	41 f4       	brne	.+16     	; 0x8d6 <__stack+0x77>
 8c6:	8c 81       	ldd	r24, Y+4	; 0x04
 8c8:	81 30       	cpi	r24, 0x01	; 1
 8ca:	29 f4       	brne	.+10     	; 0x8d6 <__stack+0x77>
    {
        /* Both back sensors on line while reversing = rear junction. */
        /* Keep moving — let front-sensor check handle real stops.   */
        Move_Down_Straight();
 8cc:	0e 94 2a 05 	call	0xa54	; 0xa54 <Move_Down_Straight>
        return 0;
 8d0:	80 e0       	ldi	r24, 0x00	; 0
 8d2:	90 e0       	ldi	r25, 0x00	; 0
 8d4:	04 c0       	rjmp	.+8      	; 0x8de <__stack+0x7f>
    }

    /* Both back sensors off line.                                   */
    Move_Down_Straight();
 8d6:	0e 94 2a 05 	call	0xa54	; 0xa54 <Move_Down_Straight>
    return 0;
 8da:	80 e0       	ldi	r24, 0x00	; 0
 8dc:	90 e0       	ldi	r25, 0x00	; 0
}
 8de:	0f 90       	pop	r0
 8e0:	0f 90       	pop	r0
 8e2:	0f 90       	pop	r0
 8e4:	0f 90       	pop	r0
 8e6:	df 91       	pop	r29
 8e8:	cf 91       	pop	r28
 8ea:	08 95       	ret

Disassembly of section .text.Push_Forward:

00000dc2 <Push_Forward>:
 * It does NOT loop — it just starts motion.
 * =========================================================*/
int Push_Forward(void)
{
    /* Start wheels rolling at straight speed.                       */
    Move_Up_Straight();
 dc2:	0e 94 a3 04 	call	0x946	; 0x946 <Move_Up_Straight>
	#else
		//round up by default
		__ticks_dc = (uint32_t)(ceil(fabs(__tmp)));
	#endif

	__builtin_avr_delay_cycles(__ticks_dc);
 dc6:	2f ef       	ldi	r18, 0xFF	; 255
 dc8:	83 ef       	ldi	r24, 0xF3	; 243
 dca:	91 e0       	ldi	r25, 0x01	; 1
 dcc:	21 50       	subi	r18, 0x01	; 1
 dce:	80 40       	sbci	r24, 0x00	; 0
 dd0:	90 40       	sbci	r25, 0x00	; 0
 dd2:	e1 f7       	brne	.-8      	; 0xdcc <Push_Forward+0xa>
 dd4:	00 c0       	rjmp	.+0      	; 0xdd6 <Push_Forward+0x14>
 dd6:	00 00       	nop
     * lingering stop-state and lets the robot leave the starting
     * intersection before Decide_Movement() starts checking.        */
    _delay_ms(80);
    /* Do NOT stop — caller's loop takes over immediately.           */
    return 0;
}
 dd8:	80 e0       	ldi	r24, 0x00	; 0
 dda:	90 e0       	ldi	r25, 0x00	; 0
 ddc:	08 95       	ret

Disassembly of section .text.Push_Backward:

00000dde <Push_Backward>:

int Push_Backward(void)
{
    Move_Down_Straight();
 dde:	0e 94 2a 05 	call	0xa54	; 0xa54 <Move_Down_Straight>
 de2:	2f ef       	ldi	r18, 0xFF	; 255
 de4:	83 ef       	ldi	r24, 0xF3	; 243
 de6:	91 e0       	ldi	r25, 0x01	; 1
 de8:	21 50       	subi	r18, 0x01	; 1
 dea:	80 40       	sbci	r24, 0x00	; 0
 dec:	90 40       	sbci	r25, 0x00	; 0
 dee:	e1 f7       	brne	.-8      	; 0xde8 <Push_Backward+0xa>
 df0:	00 c0       	rjmp	.+0      	; 0xdf2 <Push_Backward+0x14>
 df2:	00 00       	nop
    _delay_ms(80);
    return 0;
}
 df4:	80 e0       	ldi	r24, 0x00	; 0
 df6:	90 e0       	ldi	r25, 0x00	; 0
 df8:	08 95       	ret

Disassembly of section .text.Cross_Intersection_Backward:

000008ec <Cross_Intersection_Backward>:
 * Used internally in skip-line logic (commands '1'/'2'/'3').
 * Pushes backward past a detected intersection line (~2 cm tape)
 * until both sensors leave the black stripe, then returns.
 * =========================================================*/
void Cross_Intersection_Backward(void)
{
 8ec:	1f 93       	push	r17
 8ee:	cf 93       	push	r28
 8f0:	df 93       	push	r29
    /* Push through the intersection stripe.                         */
    Move_Down_Straight();
 8f2:	0e 94 2a 05 	call	0xa54	; 0xa54 <Move_Down_Straight>
 8f6:	2f ef       	ldi	r18, 0xFF	; 255
 8f8:	8d ee       	ldi	r24, 0xED	; 237
 8fa:	92 e0       	ldi	r25, 0x02	; 2
 8fc:	21 50       	subi	r18, 0x01	; 1
 8fe:	80 40       	sbci	r24, 0x00	; 0
 900:	90 40       	sbci	r25, 0x00	; 0
 902:	e1 f7       	brne	.-8      	; 0x8fc <Cross_Intersection_Backward+0x10>
 904:	00 c0       	rjmp	.+0      	; 0x906 <Cross_Intersection_Backward+0x1a>
 906:	00 00       	nop
    _delay_ms(120);   /* ~2 cm at typical hospital-corridor speed.   */

    /* Wait until front sensors leave the black tape.
     * Safety timeout: if we stay on black for > 400 ms something is
     * wrong (wide tape, wall, dead end) — bail out.                 */
    uint16_t timeout = 400;   /* ms                                  */
 908:	c0 e9       	ldi	r28, 0x90	; 144
 90a:	d1 e0       	ldi	r29, 0x01	; 1
    while (timeout > 0)
 90c:	16 c0       	rjmp	.+44     	; 0x93a <Cross_Intersection_Backward+0x4e>
    {
        unsigned char fl = read_sensor_filtered('D', 3);
 90e:	63 e0       	ldi	r22, 0x03	; 3
 910:	84 e4       	ldi	r24, 0x44	; 68
 912:	0e 94 4e 06 	call	0xc9c	; 0xc9c <read_sensor_filtered>
 916:	18 2f       	mov	r17, r24
        unsigned char fr = read_sensor_filtered('D', 4);
 918:	64 e0       	ldi	r22, 0x04	; 4
 91a:	84 e4       	ldi	r24, 0x44	; 68
 91c:	0e 94 4e 06 	call	0xc9c	; 0xc9c <read_sensor_filtered>
        if (fl != 1 || fr != 1)
 920:	11 30       	cpi	r17, 0x01	; 1
 922:	69 f4       	brne	.+26     	; 0x93e <Cross_Intersection_Backward+0x52>
 924:	81 30       	cpi	r24, 0x01	; 1
 926:	59 f4       	brne	.+22     	; 0x93e <Cross_Intersection_Backward+0x52>
            break;
        Move_Down_Straight();
 928:	0e 94 2a 05 	call	0xa54	; 0xa54 <Move_Down_Straight>
 92c:	8f e0       	ldi	r24, 0x0F	; 15
 92e:	97 e2       	ldi	r25, 0x27	; 39
 930:	01 97       	sbiw	r24, 0x01	; 1
 932:	f1 f7       	brne	.-4      	; 0x930 <Cross_Intersection_Backward+0x44>
 934:	00 c0       	rjmp	.+0      	; 0x936 <Cross_Intersection_Backward+0x4a>
 936:	00 00       	nop
        _delay_ms(5);
        timeout -= 5;
 938:	25 97       	sbiw	r28, 0x05	; 5

    /* Wait until front sensors leave the black tape.
     * Safety timeout: if we stay on black for > 400 ms something is
     * wrong (wide tape, wall, dead end) — bail out.                 */
    uint16_t timeout = 400;   /* ms                                  */
    while (timeout > 0)
 93a:	20 97       	sbiw	r28, 0x00	; 0
 93c:	41 f7       	brne	.-48     	; 0x90e <Cross_Intersection_Backward+0x22>
            break;
        Move_Down_Straight();
        _delay_ms(5);
        timeout -= 5;
    }
}
 93e:	df 91       	pop	r29
 940:	cf 91       	pop	r28
 942:	1f 91       	pop	r17
 944:	08 95       	ret

Disassembly of section .text.run_backward_until_intersection:

00000d6e <run_backward_until_intersection>:
 *
 * Same pattern for backward travel.
 */
static void run_backward_until_intersection(void)
{
    Push_Backward();        /* 80 ms rolling start                      */
 d6e:	0e 94 ef 06 	call	0xdde	; 0xdde <Push_Backward>

    while (1)
    {
        if (Back_Decide_Movement() == 1)
 d72:	0e 94 1e 04 	call	0x83c	; 0x83c <Back_Decide_Movement>
 d76:	01 97       	sbiw	r24, 0x01	; 1
 d78:	e1 f7       	brne	.-8      	; 0xd72 <run_backward_until_intersection+0x4>
 d7a:	2f ef       	ldi	r18, 0xFF	; 255
 d7c:	89 ef       	ldi	r24, 0xF9	; 249
 d7e:	90 e0       	ldi	r25, 0x00	; 0
 d80:	21 50       	subi	r18, 0x01	; 1
 d82:	80 40       	sbci	r24, 0x00	; 0
 d84:	90 40       	sbci	r25, 0x00	; 0
 d86:	e1 f7       	brne	.-8      	; 0xd80 <run_backward_until_intersection+0x12>
 d88:	00 c0       	rjmp	.+0      	; 0xd8a <run_backward_until_intersection+0x1c>
 d8a:	00 00       	nop
        {
            _delay_ms(40);
            UART_Send_string("s\r\n");
 d8c:	66 e8       	ldi	r22, 0x86	; 134
 d8e:	71 e0       	ldi	r23, 0x01	; 1
 d90:	80 e0       	ldi	r24, 0x00	; 0
 d92:	0e 94 a1 06 	call	0xd42	; 0xd42 <UART_Send_string>
 d96:	08 95       	ret

Disassembly of section .text.run_forward_until_intersection:

00000d98 <run_forward_until_intersection>:
 * This is the single canonical implementation used by 'F', post-'P',
 * and post-'N' handlers so the logic is not duplicated four times.
 */
static void run_forward_until_intersection(void)
{
    Push_Forward();         /* 80 ms rolling start, exits intersection  */
 d98:	0e 94 e1 06 	call	0xdc2	; 0xdc2 <Push_Forward>

    while (1)
    {
        if (Decide_Movement() == 1)
 d9c:	0e 94 2e 02 	call	0x45c	; 0x45c <Decide_Movement>
 da0:	01 97       	sbiw	r24, 0x01	; 1
 da2:	e1 f7       	brne	.-8      	; 0xd9c <run_forward_until_intersection+0x4>
 da4:	2f ef       	ldi	r18, 0xFF	; 255
 da6:	89 ef       	ldi	r24, 0xF9	; 249
 da8:	90 e0       	ldi	r25, 0x00	; 0
 daa:	21 50       	subi	r18, 0x01	; 1
 dac:	80 40       	sbci	r24, 0x00	; 0
 dae:	90 40       	sbci	r25, 0x00	; 0
 db0:	e1 f7       	brne	.-8      	; 0xdaa <run_forward_until_intersection+0x12>
 db2:	00 c0       	rjmp	.+0      	; 0xdb4 <run_forward_until_intersection+0x1c>
 db4:	00 00       	nop
        {
            /* Decide_Movement already called Stop() internally.        */
            _delay_ms(40);          /* motor coast-down                 */
            UART_Send_string("s\r\n");
 db6:	66 e8       	ldi	r22, 0x86	; 134
 db8:	71 e0       	ldi	r23, 0x01	; 1
 dba:	80 e0       	ldi	r24, 0x00	; 0
 dbc:	0e 94 a1 06 	call	0xd42	; 0xd42 <UART_Send_string>
 dc0:	08 95       	ret

Disassembly of section .text.main:

000001ea <main>:
 * MAIN
 * =========================================================*/
int main(void)
{
    /* ── Port A: all motor outputs ─────────────────────── */
    for (int i = 0; i < 8; i++)
 1ea:	c0 e0       	ldi	r28, 0x00	; 0
 1ec:	d0 e0       	ldi	r29, 0x00	; 0
 1ee:	06 c0       	rjmp	.+12     	; 0x1fc <main+0x12>
        DIO_Setpindir('A', i, 1);
 1f0:	41 e0       	ldi	r20, 0x01	; 1
 1f2:	6c 2f       	mov	r22, r28
 1f4:	81 e4       	ldi	r24, 0x41	; 65
 1f6:	0e 94 d8 02 	call	0x5b0	; 0x5b0 <DIO_Setpindir>
 * MAIN
 * =========================================================*/
int main(void)
{
    /* ── Port A: all motor outputs ─────────────────────── */
    for (int i = 0; i < 8; i++)
 1fa:	21 96       	adiw	r28, 0x01	; 1
 1fc:	c8 30       	cpi	r28, 0x08	; 8
 1fe:	d1 05       	cpc	r29, r1
 200:	bc f3       	brlt	.-18     	; 0x1f0 <main+0x6>
        DIO_Setpindir('A', i, 1);

    /* ── Port D: IR sensor inputs ──────────────────────── */
    Button_Init('D', 3);    /* front-left                              */
 202:	63 e0       	ldi	r22, 0x03	; 3
 204:	84 e4       	ldi	r24, 0x44	; 68
 206:	0e 94 17 07 	call	0xe2e	; 0xe2e <Button_Init>
    Button_Init('D', 4);    /* front-right                             */
 20a:	64 e0       	ldi	r22, 0x04	; 4
 20c:	84 e4       	ldi	r24, 0x44	; 68
 20e:	0e 94 17 07 	call	0xe2e	; 0xe2e <Button_Init>
    Button_Init('D', 5);    /* back-left                               */
 212:	65 e0       	ldi	r22, 0x05	; 5
 214:	84 e4       	ldi	r24, 0x44	; 68
 216:	0e 94 17 07 	call	0xe2e	; 0xe2e <Button_Init>
    Button_Init('D', 6);    /* back-right                              */
 21a:	66 e0       	ldi	r22, 0x06	; 6
 21c:	84 e4       	ldi	r24, 0x44	; 68
 21e:	0e 94 17 07 	call	0xe2e	; 0xe2e <Button_Init>

    /* ── Status LEDs ───────────────────────────────────── */
    LED_Init('C', 0);
 222:	60 e0       	ldi	r22, 0x00	; 0
 224:	83 e4       	ldi	r24, 0x43	; 67
 226:	0e 94 1b 07 	call	0xe36	; 0xe36 <LED_Init>
    LED_Init('C', 7);
 22a:	67 e0       	ldi	r22, 0x07	; 7
 22c:	83 e4       	ldi	r24, 0x43	; 67
 22e:	0e 94 1b 07 	call	0xe36	; 0xe36 <LED_Init>
    LED_On('C', 0);
 232:	60 e0       	ldi	r22, 0x00	; 0
 234:	83 e4       	ldi	r24, 0x43	; 67
 236:	0e 94 1f 07 	call	0xe3e	; 0xe3e <LED_On>
 23a:	2f ef       	ldi	r18, 0xFF	; 255
 23c:	84 e3       	ldi	r24, 0x34	; 52
 23e:	9c e0       	ldi	r25, 0x0C	; 12
 240:	21 50       	subi	r18, 0x01	; 1
 242:	80 40       	sbci	r24, 0x00	; 0
 244:	90 40       	sbci	r25, 0x00	; 0
 246:	e1 f7       	brne	.-8      	; 0x240 <main+0x56>
 248:	00 c0       	rjmp	.+0      	; 0x24a <main+0x60>
 24a:	00 00       	nop
    _delay_ms(500);
    LED_Off('C', 0);
 24c:	60 e0       	ldi	r22, 0x00	; 0
 24e:	83 e4       	ldi	r24, 0x43	; 67
 250:	0e 94 23 07 	call	0xe46	; 0xe46 <LED_Off>

    /* ── UART ──────────────────────────────────────────── */
    UART_Init(9600);
 254:	60 e8       	ldi	r22, 0x80	; 128
 256:	75 e2       	ldi	r23, 0x25	; 37
 258:	80 e0       	ldi	r24, 0x00	; 0
 25a:	90 e0       	ldi	r25, 0x00	; 0
 25c:	0e 94 0a 06 	call	0xc14	; 0xc14 <UART_Init>
    UART_Send_string("[DEBUG] UART Initialized @9600\r\n");
 260:	6a e8       	ldi	r22, 0x8A	; 138
 262:	71 e0       	ldi	r23, 0x01	; 1
 264:	80 e0       	ldi	r24, 0x00	; 0
 266:	0e 94 a1 06 	call	0xd42	; 0xd42 <UART_Send_string>
    char cmd;

    /* ── Main command loop ─────────────────────────────── */
    while (1)
    {
        cmd = UART_Receive_data();
 26a:	0e 94 2b 07 	call	0xe56	; 0xe56 <UART_Receive_data>

        /* ── Skip whitespace ──────────────────────────── */
        if (cmd == '\n' || cmd == '\r')
 26e:	8a 30       	cpi	r24, 0x0A	; 10
 270:	e1 f3       	breq	.-8      	; 0x26a <main+0x80>
 272:	8d 30       	cpi	r24, 0x0D	; 13
 274:	d1 f3       	breq	.-12     	; 0x26a <main+0x80>
            continue;

        /* ══════════════════════════════════════════════
         * 'F' — FORWARD LINE-FOLLOW
         * ══════════════════════════════════════════════*/
        if (cmd == 'F')
 276:	86 34       	cpi	r24, 0x46	; 70
 278:	41 f4       	brne	.+16     	; 0x28a <main+0xa0>
        {
            UART_Send_string("OK:F\r\n");
 27a:	6b ea       	ldi	r22, 0xAB	; 171
 27c:	71 e0       	ldi	r23, 0x01	; 1
 27e:	80 e0       	ldi	r24, 0x00	; 0
 280:	0e 94 a1 06 	call	0xd42	; 0xd42 <UART_Send_string>
            run_forward_until_intersection();
 284:	0e 94 cc 06 	call	0xd98	; 0xd98 <run_forward_until_intersection>
 288:	f0 cf       	rjmp	.-32     	; 0x26a <main+0x80>
        }

        /* ══════════════════════════════════════════════
         * 'B' — BACKWARD LINE-FOLLOW
         * ══════════════════════════════════════════════*/
        else if (cmd == 'B')
 28a:	82 34       	cpi	r24, 0x42	; 66
 28c:	41 f4       	brne	.+16     	; 0x29e <main+0xb4>
        {
            UART_Send_string("OK:B\r\n");
 28e:	62 eb       	ldi	r22, 0xB2	; 178
 290:	71 e0       	ldi	r23, 0x01	; 1
 292:	80 e0       	ldi	r24, 0x00	; 0
 294:	0e 94 a1 06 	call	0xd42	; 0xd42 <UART_Send_string>
            run_backward_until_intersection();
 298:	0e 94 b7 06 	call	0xd6e	; 0xd6e <run_backward_until_intersection>
 29c:	e6 cf       	rjmp	.-52     	; 0x26a <main+0x80>

        /* ══════════════════════════════════════════════
         * 'P' — POSITIVE (RIGHT) ROTATION
         * Rotate right until RPi sends 'F', 'B', or 'S'.
         * ══════════════════════════════════════════════*/
        else if (cmd == 'P')
 29e:	80 35       	cpi	r24, 0x50	; 80
 2a0:	a9 f5       	brne	.+106    	; 0x30c <main+0x122>
        {
            UART_Send_string("OK:P\r\n");
 2a2:	69 eb       	ldi	r22, 0xB9	; 185
 2a4:	71 e0       	ldi	r23, 0x01	; 1
 2a6:	80 e0       	ldi	r24, 0x00	; 0
 2a8:	0e 94 a1 06 	call	0xd42	; 0xd42 <UART_Send_string>

            while (1)
            {
                cmd = UART_Receive_data();
 2ac:	0e 94 2b 07 	call	0xe56	; 0xe56 <UART_Receive_data>

                if (cmd == 'F')
 2b0:	86 34       	cpi	r24, 0x46	; 70
 2b2:	41 f4       	brne	.+16     	; 0x2c4 <main+0xda>
                {
                    UART_Send_string("OK:F\r\n");
 2b4:	6b ea       	ldi	r22, 0xAB	; 171
 2b6:	71 e0       	ldi	r23, 0x01	; 1
 2b8:	80 e0       	ldi	r24, 0x00	; 0
 2ba:	0e 94 a1 06 	call	0xd42	; 0xd42 <UART_Send_string>
                    run_forward_until_intersection();
 2be:	0e 94 cc 06 	call	0xd98	; 0xd98 <run_forward_until_intersection>
                    break;
 2c2:	d3 cf       	rjmp	.-90     	; 0x26a <main+0x80>
                }
                else if (cmd == 'B')
 2c4:	82 34       	cpi	r24, 0x42	; 66
 2c6:	41 f4       	brne	.+16     	; 0x2d8 <main+0xee>
                {
                    UART_Send_string("OK:B\r\n");
 2c8:	62 eb       	ldi	r22, 0xB2	; 178
 2ca:	71 e0       	ldi	r23, 0x01	; 1
 2cc:	80 e0       	ldi	r24, 0x00	; 0
 2ce:	0e 94 a1 06 	call	0xd42	; 0xd42 <UART_Send_string>
                    run_backward_until_intersection();
 2d2:	0e 94 b7 06 	call	0xd6e	; 0xd6e <run_backward_until_intersection>
                    break;
 2d6:	c9 cf       	rjmp	.-110    	; 0x26a <main+0x80>
                }
                else if (cmd == 'S')
 2d8:	83 35       	cpi	r24, 0x53	; 83
 2da:	89 f4       	brne	.+34     	; 0x2fe <main+0x114>
                {
                    Stop();
 2dc:	0e 94 b1 05 	call	0xb62	; 0xb62 <Stop>
 2e0:	2f ef       	ldi	r18, 0xFF	; 255
 2e2:	89 ef       	ldi	r24, 0xF9	; 249
 2e4:	90 e0       	ldi	r25, 0x00	; 0
 2e6:	21 50       	subi	r18, 0x01	; 1
 2e8:	80 40       	sbci	r24, 0x00	; 0
 2ea:	90 40       	sbci	r25, 0x00	; 0
 2ec:	e1 f7       	brne	.-8      	; 0x2e6 <main+0xfc>
 2ee:	00 c0       	rjmp	.+0      	; 0x2f0 <main+0x106>
 2f0:	00 00       	nop
                    _delay_ms(40);
                    UART_Send_string("OK:S\r\n");
 2f2:	60 ec       	ldi	r22, 0xC0	; 192
 2f4:	71 e0       	ldi	r23, 0x01	; 1
 2f6:	80 e0       	ldi	r24, 0x00	; 0
 2f8:	0e 94 a1 06 	call	0xd42	; 0xd42 <UART_Send_string>
                    break;
 2fc:	b6 cf       	rjmp	.-148    	; 0x26a <main+0x80>
                }
                else if (cmd == '\n' || cmd == '\r')
 2fe:	8a 30       	cpi	r24, 0x0A	; 10
 300:	a9 f2       	breq	.-86     	; 0x2ac <main+0xc2>
 302:	8d 30       	cpi	r24, 0x0D	; 13
 304:	99 f2       	breq	.-90     	; 0x2ac <main+0xc2>
                    /* ignore — keep rotating                         */
                }
                else
                {
                    /* keep rotating while waiting for RPi command    */
                    Move_Right_Turn();
 306:	0e 94 84 05 	call	0xb08	; 0xb08 <Move_Right_Turn>
 30a:	d0 cf       	rjmp	.-96     	; 0x2ac <main+0xc2>

        /* ══════════════════════════════════════════════
         * 'N' — NEGATIVE (LEFT) ROTATION
         * Rotate left until RPi sends 'F', 'B', or 'S'.
         * ══════════════════════════════════════════════*/
        else if (cmd == 'N')
 30c:	8e 34       	cpi	r24, 0x4E	; 78
 30e:	a9 f5       	brne	.+106    	; 0x37a <main+0x190>
        {
            UART_Send_string("OK:N\r\n");
 310:	67 ec       	ldi	r22, 0xC7	; 199
 312:	71 e0       	ldi	r23, 0x01	; 1
 314:	80 e0       	ldi	r24, 0x00	; 0
 316:	0e 94 a1 06 	call	0xd42	; 0xd42 <UART_Send_string>

            while (1)
            {
                cmd = UART_Receive_data();
 31a:	0e 94 2b 07 	call	0xe56	; 0xe56 <UART_Receive_data>

                if (cmd == 'F')
 31e:	86 34       	cpi	r24, 0x46	; 70
 320:	41 f4       	brne	.+16     	; 0x332 <main+0x148>
                {
                    UART_Send_string("OK:F\r\n");
 322:	6b ea       	ldi	r22, 0xAB	; 171
 324:	71 e0       	ldi	r23, 0x01	; 1
 326:	80 e0       	ldi	r24, 0x00	; 0
 328:	0e 94 a1 06 	call	0xd42	; 0xd42 <UART_Send_string>
                    run_forward_until_intersection();
 32c:	0e 94 cc 06 	call	0xd98	; 0xd98 <run_forward_until_intersection>
                    break;
 330:	9c cf       	rjmp	.-200    	; 0x26a <main+0x80>
                }
                else if (cmd == 'B')
 332:	82 34       	cpi	r24, 0x42	; 66
 334:	41 f4       	brne	.+16     	; 0x346 <main+0x15c>
                {
                    UART_Send_string("OK:B\r\n");
 336:	62 eb       	ldi	r22, 0xB2	; 178
 338:	71 e0       	ldi	r23, 0x01	; 1
 33a:	80 e0       	ldi	r24, 0x00	; 0
 33c:	0e 94 a1 06 	call	0xd42	; 0xd42 <UART_Send_string>
                    run_backward_until_intersection();
 340:	0e 94 b7 06 	call	0xd6e	; 0xd6e <run_backward_until_intersection>
                    break;
 344:	92 cf       	rjmp	.-220    	; 0x26a <main+0x80>
                }
                else if (cmd == 'S')
 346:	83 35       	cpi	r24, 0x53	; 83
 348:	89 f4       	brne	.+34     	; 0x36c <main+0x182>
                {
                    Stop();
 34a:	0e 94 b1 05 	call	0xb62	; 0xb62 <Stop>
 34e:	2f ef       	ldi	r18, 0xFF	; 255
 350:	89 ef       	ldi	r24, 0xF9	; 249
 352:	90 e0       	ldi	r25, 0x00	; 0
 354:	21 50       	subi	r18, 0x01	; 1
 356:	80 40       	sbci	r24, 0x00	; 0
 358:	90 40       	sbci	r25, 0x00	; 0
 35a:	e1 f7       	brne	.-8      	; 0x354 <main+0x16a>
 35c:	00 c0       	rjmp	.+0      	; 0x35e <main+0x174>
 35e:	00 00       	nop
                    _delay_ms(40);
                    UART_Send_string("OK:S\r\n");
 360:	60 ec       	ldi	r22, 0xC0	; 192
 362:	71 e0       	ldi	r23, 0x01	; 1
 364:	80 e0       	ldi	r24, 0x00	; 0
 366:	0e 94 a1 06 	call	0xd42	; 0xd42 <UART_Send_string>
                    break;
 36a:	7f cf       	rjmp	.-258    	; 0x26a <main+0x80>
                }
                else if (cmd == '\n' || cmd == '\r')
 36c:	8a 30       	cpi	r24, 0x0A	; 10
 36e:	a9 f2       	breq	.-86     	; 0x31a <main+0x130>
 370:	8d 30       	cpi	r24, 0x0D	; 13
 372:	99 f2       	breq	.-90     	; 0x31a <main+0x130>
                {
                    /* ignore                                         */
                }
                else
                {
                    Move_Left_Turn();
 374:	0e 94 57 05 	call	0xaae	; 0xaae <Move_Left_Turn>
 378:	d0 cf       	rjmp	.-96     	; 0x31a <main+0x130>
        }

        /* ══════════════════════════════════════════════
         * 'S' — STOP
         * ══════════════════════════════════════════════*/
        else if (cmd == 'S')
 37a:	83 35       	cpi	r24, 0x53	; 83
 37c:	89 f4       	brne	.+34     	; 0x3a0 <main+0x1b6>
        {
            Stop();
 37e:	0e 94 b1 05 	call	0xb62	; 0xb62 <Stop>
 382:	2f ef       	ldi	r18, 0xFF	; 255
 384:	89 ef       	ldi	r24, 0xF9	; 249
 386:	90 e0       	ldi	r25, 0x00	; 0
 388:	21 50       	subi	r18, 0x01	; 1
 38a:	80 40       	sbci	r24, 0x00	; 0
 38c:	90 40       	sbci	r25, 0x00	; 0
 38e:	e1 f7       	brne	.-8      	; 0x388 <main+0x19e>
 390:	00 c0       	rjmp	.+0      	; 0x392 <main+0x1a8>
 392:	00 00       	nop
            _delay_ms(40);
            UART_Send_string("OK:S\r\n");
 394:	60 ec       	ldi	r22, 0xC0	; 192
 396:	71 e0       	ldi	r23, 0x01	; 1
 398:	80 e0       	ldi	r24, 0x00	; 0
 39a:	0e 94 a1 06 	call	0xd42	; 0xd42 <UART_Send_string>
 39e:	65 cf       	rjmp	.-310    	; 0x26a <main+0x80>
         *
         * '1' → stop at 1st line  (skip 0)
         * '2' → stop at 2nd line  (skip 1)
         * '3' → stop at 3rd line  (skip 2)
         * ══════════════════════════════════════════════*/
        else if (cmd == '1' || cmd == '2' || cmd == '3')
 3a0:	9f ec       	ldi	r25, 0xCF	; 207
 3a2:	98 0f       	add	r25, r24
 3a4:	93 30       	cpi	r25, 0x03	; 3
 3a6:	08 f0       	brcs	.+2      	; 0x3aa <main+0x1c0>
 3a8:	3f c0       	rjmp	.+126    	; 0x428 <__EEPROM_REGION_LENGTH__+0x28>
        {
            int lines_to_skip = (int)(cmd - '0') - 1;   /* 0, 1, or 2 */
 3aa:	08 2f       	mov	r16, r24
 3ac:	10 e0       	ldi	r17, 0x00	; 0
 3ae:	01 53       	subi	r16, 0x31	; 49
 3b0:	11 09       	sbc	r17, r1
            int lines_skipped = 0;

            if      (cmd == '1') UART_Send_string("OK:1\r\n");
 3b2:	81 33       	cpi	r24, 0x31	; 49
 3b4:	31 f4       	brne	.+12     	; 0x3c2 <main+0x1d8>
 3b6:	6e ec       	ldi	r22, 0xCE	; 206
 3b8:	71 e0       	ldi	r23, 0x01	; 1
 3ba:	80 e0       	ldi	r24, 0x00	; 0
 3bc:	0e 94 a1 06 	call	0xd42	; 0xd42 <UART_Send_string>
 3c0:	0d c0       	rjmp	.+26     	; 0x3dc <main+0x1f2>
            else if (cmd == '2') UART_Send_string("OK:2\r\n");
 3c2:	82 33       	cpi	r24, 0x32	; 50
 3c4:	31 f4       	brne	.+12     	; 0x3d2 <main+0x1e8>
 3c6:	65 ed       	ldi	r22, 0xD5	; 213
 3c8:	71 e0       	ldi	r23, 0x01	; 1
 3ca:	80 e0       	ldi	r24, 0x00	; 0
 3cc:	0e 94 a1 06 	call	0xd42	; 0xd42 <UART_Send_string>
 3d0:	05 c0       	rjmp	.+10     	; 0x3dc <main+0x1f2>
            else                 UART_Send_string("OK:3\r\n");
 3d2:	6c ed       	ldi	r22, 0xDC	; 220
 3d4:	71 e0       	ldi	r23, 0x01	; 1
 3d6:	80 e0       	ldi	r24, 0x00	; 0
 3d8:	0e 94 a1 06 	call	0xd42	; 0xd42 <UART_Send_string>

            /* Initial push to clear any current intersection.       */
            Push_Backward();     /* 80 ms — exits current tape stripe */
 3dc:	0e 94 ef 06 	call	0xdde	; 0xdde <Push_Backward>
         * '3' → stop at 3rd line  (skip 2)
         * ══════════════════════════════════════════════*/
        else if (cmd == '1' || cmd == '2' || cmd == '3')
        {
            int lines_to_skip = (int)(cmd - '0') - 1;   /* 0, 1, or 2 */
            int lines_skipped = 0;
 3e0:	c0 e0       	ldi	r28, 0x00	; 0
 3e2:	d0 e0       	ldi	r29, 0x00	; 0
            /* Initial push to clear any current intersection.       */
            Push_Backward();     /* 80 ms — exits current tape stripe */

            while (1)
            {
                if (Back_Decide_Movement() == 1)
 3e4:	0e 94 1e 04 	call	0x83c	; 0x83c <Back_Decide_Movement>
 3e8:	01 97       	sbiw	r24, 0x01	; 1
 3ea:	e1 f7       	brne	.-8      	; 0x3e4 <main+0x1fa>
                {
                    /* Intersection detected (confirmed by Back_Decide). */

                    if (lines_skipped < lines_to_skip)
 3ec:	c0 17       	cp	r28, r16
 3ee:	d1 07       	cpc	r29, r17
 3f0:	54 f4       	brge	.+20     	; 0x406 <__EEPROM_REGION_LENGTH__+0x6>
                    {
                        /* Not target yet — push through this line.  */
                        Cross_Intersection_Backward();
 3f2:	0e 94 76 04 	call	0x8ec	; 0x8ec <Cross_Intersection_Backward>
                        lines_skipped++;
 3f6:	21 96       	adiw	r28, 0x01	; 1
 3f8:	8f e5       	ldi	r24, 0x5F	; 95
 3fa:	9a ee       	ldi	r25, 0xEA	; 234
 3fc:	01 97       	sbiw	r24, 0x01	; 1
 3fe:	f1 f7       	brne	.-4      	; 0x3fc <main+0x212>
 400:	00 c0       	rjmp	.+0      	; 0x402 <__EEPROM_REGION_LENGTH__+0x2>
 402:	00 00       	nop
 404:	ef cf       	rjmp	.-34     	; 0x3e4 <main+0x1fa>
                        _delay_ms(30);
                    }
                    else
                    {
                        /* Target line reached — stop.               */
                        Stop();
 406:	0e 94 b1 05 	call	0xb62	; 0xb62 <Stop>
 40a:	9f ef       	ldi	r25, 0xFF	; 255
 40c:	29 ef       	ldi	r18, 0xF9	; 249
 40e:	80 e0       	ldi	r24, 0x00	; 0
 410:	91 50       	subi	r25, 0x01	; 1
 412:	20 40       	sbci	r18, 0x00	; 0
 414:	80 40       	sbci	r24, 0x00	; 0
 416:	e1 f7       	brne	.-8      	; 0x410 <__EEPROM_REGION_LENGTH__+0x10>
 418:	00 c0       	rjmp	.+0      	; 0x41a <__EEPROM_REGION_LENGTH__+0x1a>
 41a:	00 00       	nop
                        _delay_ms(40);
                        UART_Send_string("s\r\n");
 41c:	66 e8       	ldi	r22, 0x86	; 134
 41e:	71 e0       	ldi	r23, 0x01	; 1
 420:	80 e0       	ldi	r24, 0x00	; 0
 422:	0e 94 a1 06 	call	0xd42	; 0xd42 <UART_Send_string>
 426:	21 cf       	rjmp	.-446    	; 0x26a <main+0x80>
        }

        /* ══════════════════════════════════════════════
         * 'X' — BUZZER / LED INDICATOR
         * ══════════════════════════════════════════════*/
        else if (cmd == 'X')
 428:	88 35       	cpi	r24, 0x58	; 88
 42a:	09 f0       	breq	.+2      	; 0x42e <__EEPROM_REGION_LENGTH__+0x2e>
 42c:	1e cf       	rjmp	.-452    	; 0x26a <main+0x80>
        {
            UART_Send_string("OK:K\r\n");
 42e:	63 ee       	ldi	r22, 0xE3	; 227
 430:	71 e0       	ldi	r23, 0x01	; 1
 432:	80 e0       	ldi	r24, 0x00	; 0
 434:	0e 94 a1 06 	call	0xd42	; 0xd42 <UART_Send_string>
            LED_On('C', 7);
 438:	67 e0       	ldi	r22, 0x07	; 7
 43a:	83 e4       	ldi	r24, 0x43	; 67
 43c:	0e 94 1f 07 	call	0xe3e	; 0xe3e <LED_On>
 440:	9f ef       	ldi	r25, 0xFF	; 255
 442:	23 ed       	ldi	r18, 0xD3	; 211
 444:	80 e3       	ldi	r24, 0x30	; 48
 446:	91 50       	subi	r25, 0x01	; 1
 448:	20 40       	sbci	r18, 0x00	; 0
 44a:	80 40       	sbci	r24, 0x00	; 0
 44c:	e1 f7       	brne	.-8      	; 0x446 <__EEPROM_REGION_LENGTH__+0x46>
 44e:	00 c0       	rjmp	.+0      	; 0x450 <__EEPROM_REGION_LENGTH__+0x50>
 450:	00 00       	nop
            _delay_ms(2000);
            LED_Off('C', 7);
 452:	67 e0       	ldi	r22, 0x07	; 7
 454:	83 e4       	ldi	r24, 0x43	; 67
 456:	0e 94 23 07 	call	0xe46	; 0xe46 <LED_Off>
 45a:	07 cf       	rjmp	.-498    	; 0x26a <main+0x80>

Disassembly of section .text.set_pwm:

00000e10 <set_pwm>:

/* =========================================================
 * PRIVATE HELPER — set both PWM channels at once
 * =========================================================*/
static void set_pwm(unsigned char left_duty, unsigned char right_duty)
{
 e10:	cf 93       	push	r28
 e12:	c6 2f       	mov	r28, r22
    Timer_wave_fastPWM(left_duty);
 e14:	0e 94 89 06 	call	0xd12	; 0xd12 <Timer_wave_fastPWM>
    Timer2_wave_fastPWM(right_duty);
 e18:	8c 2f       	mov	r24, r28
 e1a:	0e 94 6e 06 	call	0xcdc	; 0xcdc <Timer2_wave_fastPWM>
}
 e1e:	cf 91       	pop	r28
 e20:	08 95       	ret

Disassembly of section .text.Move_Up_Straight:

00000946 <Move_Up_Straight>:
    Move_Left_Turn();
}

void Move_Right(void)
{
    Move_Right_Turn();
 946:	40 e0       	ldi	r20, 0x00	; 0
 948:	60 e0       	ldi	r22, 0x00	; 0
 94a:	81 e4       	ldi	r24, 0x41	; 65
 94c:	0e 94 48 03 	call	0x690	; 0x690 <DIO_Writepin>
 950:	41 e0       	ldi	r20, 0x01	; 1
 952:	61 e0       	ldi	r22, 0x01	; 1
 954:	81 e4       	ldi	r24, 0x41	; 65
 956:	0e 94 48 03 	call	0x690	; 0x690 <DIO_Writepin>
 95a:	40 e0       	ldi	r20, 0x00	; 0
 95c:	62 e0       	ldi	r22, 0x02	; 2
 95e:	81 e4       	ldi	r24, 0x41	; 65
 960:	0e 94 48 03 	call	0x690	; 0x690 <DIO_Writepin>
 964:	41 e0       	ldi	r20, 0x01	; 1
 966:	63 e0       	ldi	r22, 0x03	; 3
 968:	81 e4       	ldi	r24, 0x41	; 65
 96a:	0e 94 48 03 	call	0x690	; 0x690 <DIO_Writepin>
 96e:	40 e0       	ldi	r20, 0x00	; 0
 970:	64 e0       	ldi	r22, 0x04	; 4
 972:	81 e4       	ldi	r24, 0x41	; 65
 974:	0e 94 48 03 	call	0x690	; 0x690 <DIO_Writepin>
 978:	41 e0       	ldi	r20, 0x01	; 1
 97a:	65 e0       	ldi	r22, 0x05	; 5
 97c:	81 e4       	ldi	r24, 0x41	; 65
 97e:	0e 94 48 03 	call	0x690	; 0x690 <DIO_Writepin>
 982:	40 e0       	ldi	r20, 0x00	; 0
 984:	66 e0       	ldi	r22, 0x06	; 6
 986:	81 e4       	ldi	r24, 0x41	; 65
 988:	0e 94 48 03 	call	0x690	; 0x690 <DIO_Writepin>
 98c:	41 e0       	ldi	r20, 0x01	; 1
 98e:	67 e0       	ldi	r22, 0x07	; 7
 990:	81 e4       	ldi	r24, 0x41	; 65
 992:	0e 94 48 03 	call	0x690	; 0x690 <DIO_Writepin>
 996:	6c e3       	ldi	r22, 0x3C	; 60
 998:	8c e3       	ldi	r24, 0x3C	; 60
 99a:	0e 94 08 07 	call	0xe10	; 0xe10 <set_pwm>
 99e:	08 95       	ret

Disassembly of section .text.Move_Correct_Left:

000009a0 <Move_Correct_Left>:
 9a0:	40 e0       	ldi	r20, 0x00	; 0
 9a2:	60 e0       	ldi	r22, 0x00	; 0
 9a4:	81 e4       	ldi	r24, 0x41	; 65
 9a6:	0e 94 48 03 	call	0x690	; 0x690 <DIO_Writepin>
 9aa:	41 e0       	ldi	r20, 0x01	; 1
 9ac:	61 e0       	ldi	r22, 0x01	; 1
 9ae:	81 e4       	ldi	r24, 0x41	; 65
 9b0:	0e 94 48 03 	call	0x690	; 0x690 <DIO_Writepin>
 9b4:	40 e0       	ldi	r20, 0x00	; 0
 9b6:	62 e0       	ldi	r22, 0x02	; 2
 9b8:	81 e4       	ldi	r24, 0x41	; 65
 9ba:	0e 94 48 03 	call	0x690	; 0x690 <DIO_Writepin>
 9be:	41 e0       	ldi	r20, 0x01	; 1
 9c0:	63 e0       	ldi	r22, 0x03	; 3
 9c2:	81 e4       	ldi	r24, 0x41	; 65
 9c4:	0e 94 48 03 	call	0x690	; 0x690 <DIO_Writepin>
 9c8:	40 e0       	ldi	r20, 0x00	; 0
 9ca:	64 e0       	ldi	r22, 0x04	; 4
 9cc:	81 e4       	ldi	r24, 0x41	; 65
 9ce:	0e 94 48 03 	call	0x690	; 0x690 <DIO_Writepin>
 9d2:	41 e0       	ldi	r20, 0x01	; 1
 9d4:	65 e0       	ldi	r22, 0x05	; 5
 9d6:	81 e4       	ldi	r24, 0x41	; 65
 9d8:	0e 94 48 03 	call	0x690	; 0x690 <DIO_Writepin>
 9dc:	40 e0       	ldi	r20, 0x00	; 0
 9de:	66 e0       	ldi	r22, 0x06	; 6
 9e0:	81 e4       	ldi	r24, 0x41	; 65
 9e2:	0e 94 48 03 	call	0x690	; 0x690 <DIO_Writepin>
 9e6:	41 e0       	ldi	r20, 0x01	; 1
 9e8:	67 e0       	ldi	r22, 0x07	; 7
 9ea:	81 e4       	ldi	r24, 0x41	; 65
 9ec:	0e 94 48 03 	call	0x690	; 0x690 <DIO_Writepin>
 9f0:	61 e4       	ldi	r22, 0x41	; 65
 9f2:	83 e2       	ldi	r24, 0x23	; 35
 9f4:	0e 94 08 07 	call	0xe10	; 0xe10 <set_pwm>
 9f8:	08 95       	ret

Disassembly of section .text.Move_Correct_Right:

000009fa <Move_Correct_Right>:
 9fa:	40 e0       	ldi	r20, 0x00	; 0
 9fc:	60 e0       	ldi	r22, 0x00	; 0
 9fe:	81 e4       	ldi	r24, 0x41	; 65
 a00:	0e 94 48 03 	call	0x690	; 0x690 <DIO_Writepin>
 a04:	41 e0       	ldi	r20, 0x01	; 1
 a06:	61 e0       	ldi	r22, 0x01	; 1
 a08:	81 e4       	ldi	r24, 0x41	; 65
 a0a:	0e 94 48 03 	call	0x690	; 0x690 <DIO_Writepin>
 a0e:	40 e0       	ldi	r20, 0x00	; 0
 a10:	62 e0       	ldi	r22, 0x02	; 2
 a12:	81 e4       	ldi	r24, 0x41	; 65
 a14:	0e 94 48 03 	call	0x690	; 0x690 <DIO_Writepin>
 a18:	41 e0       	ldi	r20, 0x01	; 1
 a1a:	63 e0       	ldi	r22, 0x03	; 3
 a1c:	81 e4       	ldi	r24, 0x41	; 65
 a1e:	0e 94 48 03 	call	0x690	; 0x690 <DIO_Writepin>
 a22:	40 e0       	ldi	r20, 0x00	; 0
 a24:	64 e0       	ldi	r22, 0x04	; 4
 a26:	81 e4       	ldi	r24, 0x41	; 65
 a28:	0e 94 48 03 	call	0x690	; 0x690 <DIO_Writepin>
 a2c:	41 e0       	ldi	r20, 0x01	; 1
 a2e:	65 e0       	ldi	r22, 0x05	; 5
 a30:	81 e4       	ldi	r24, 0x41	; 65
 a32:	0e 94 48 03 	call	0x690	; 0x690 <DIO_Writepin>
 a36:	40 e0       	ldi	r20, 0x00	; 0
 a38:	66 e0       	ldi	r22, 0x06	; 6
 a3a:	81 e4       	ldi	r24, 0x41	; 65
 a3c:	0e 94 48 03 	call	0x690	; 0x690 <DIO_Writepin>
 a40:	41 e0       	ldi	r20, 0x01	; 1
 a42:	67 e0       	ldi	r22, 0x07	; 7
 a44:	81 e4       	ldi	r24, 0x41	; 65
 a46:	0e 94 48 03 	call	0x690	; 0x690 <DIO_Writepin>
 a4a:	63 e2       	ldi	r22, 0x23	; 35
 a4c:	81 e4       	ldi	r24, 0x41	; 65
 a4e:	0e 94 08 07 	call	0xe10	; 0xe10 <set_pwm>
 a52:	08 95       	ret

Disassembly of section .text.Move_Down_Straight:

00000a54 <Move_Down_Straight>:
 a54:	41 e0       	ldi	r20, 0x01	; 1
 a56:	60 e0       	ldi	r22, 0x00	; 0
 a58:	81 e4       	ldi	r24, 0x41	; 65
 a5a:	0e 94 48 03 	call	0x690	; 0x690 <DIO_Writepin>
 a5e:	40 e0       	ldi	r20, 0x00	; 0
 a60:	61 e0       	ldi	r22, 0x01	; 1
 a62:	81 e4       	ldi	r24, 0x41	; 65
 a64:	0e 94 48 03 	call	0x690	; 0x690 <DIO_Writepin>
 a68:	41 e0       	ldi	r20, 0x01	; 1
 a6a:	62 e0       	ldi	r22, 0x02	; 2
 a6c:	81 e4       	ldi	r24, 0x41	; 65
 a6e:	0e 94 48 03 	call	0x690	; 0x690 <DIO_Writepin>
 a72:	40 e0       	ldi	r20, 0x00	; 0
 a74:	63 e0       	ldi	r22, 0x03	; 3
 a76:	81 e4       	ldi	r24, 0x41	; 65
 a78:	0e 94 48 03 	call	0x690	; 0x690 <DIO_Writepin>
 a7c:	41 e0       	ldi	r20, 0x01	; 1
 a7e:	64 e0       	ldi	r22, 0x04	; 4
 a80:	81 e4       	ldi	r24, 0x41	; 65
 a82:	0e 94 48 03 	call	0x690	; 0x690 <DIO_Writepin>
 a86:	40 e0       	ldi	r20, 0x00	; 0
 a88:	65 e0       	ldi	r22, 0x05	; 5
 a8a:	81 e4       	ldi	r24, 0x41	; 65
 a8c:	0e 94 48 03 	call	0x690	; 0x690 <DIO_Writepin>
 a90:	41 e0       	ldi	r20, 0x01	; 1
 a92:	66 e0       	ldi	r22, 0x06	; 6
 a94:	81 e4       	ldi	r24, 0x41	; 65
 a96:	0e 94 48 03 	call	0x690	; 0x690 <DIO_Writepin>
 a9a:	40 e0       	ldi	r20, 0x00	; 0
 a9c:	67 e0       	ldi	r22, 0x07	; 7
 a9e:	81 e4       	ldi	r24, 0x41	; 65
 aa0:	0e 94 48 03 	call	0x690	; 0x690 <DIO_Writepin>
 aa4:	6c e3       	ldi	r22, 0x3C	; 60
 aa6:	8c e3       	ldi	r24, 0x3C	; 60
 aa8:	0e 94 08 07 	call	0xe10	; 0xe10 <set_pwm>
 aac:	08 95       	ret

Disassembly of section .text.Move_Left_Turn:

00000aae <Move_Left_Turn>:
 aae:	41 e0       	ldi	r20, 0x01	; 1
 ab0:	60 e0       	ldi	r22, 0x00	; 0
 ab2:	81 e4       	ldi	r24, 0x41	; 65
 ab4:	0e 94 48 03 	call	0x690	; 0x690 <DIO_Writepin>
 ab8:	40 e0       	ldi	r20, 0x00	; 0
 aba:	61 e0       	ldi	r22, 0x01	; 1
 abc:	81 e4       	ldi	r24, 0x41	; 65
 abe:	0e 94 48 03 	call	0x690	; 0x690 <DIO_Writepin>
 ac2:	41 e0       	ldi	r20, 0x01	; 1
 ac4:	62 e0       	ldi	r22, 0x02	; 2
 ac6:	81 e4       	ldi	r24, 0x41	; 65
 ac8:	0e 94 48 03 	call	0x690	; 0x690 <DIO_Writepin>
 acc:	40 e0       	ldi	r20, 0x00	; 0
 ace:	63 e0       	ldi	r22, 0x03	; 3
 ad0:	81 e4       	ldi	r24, 0x41	; 65
 ad2:	0e 94 48 03 	call	0x690	; 0x690 <DIO_Writepin>
 ad6:	40 e0       	ldi	r20, 0x00	; 0
 ad8:	64 e0       	ldi	r22, 0x04	; 4
 ada:	81 e4       	ldi	r24, 0x41	; 65
 adc:	0e 94 48 03 	call	0x690	; 0x690 <DIO_Writepin>
 ae0:	41 e0       	ldi	r20, 0x01	; 1
 ae2:	65 e0       	ldi	r22, 0x05	; 5
 ae4:	81 e4       	ldi	r24, 0x41	; 65
 ae6:	0e 94 48 03 	call	0x690	; 0x690 <DIO_Writepin>
 aea:	40 e0       	ldi	r20, 0x00	; 0
 aec:	66 e0       	ldi	r22, 0x06	; 6
 aee:	81 e4       	ldi	r24, 0x41	; 65
 af0:	0e 94 48 03 	call	0x690	; 0x690 <DIO_Writepin>
 af4:	41 e0       	ldi	r20, 0x01	; 1
 af6:	67 e0       	ldi	r22, 0x07	; 7
 af8:	81 e4       	ldi	r24, 0x41	; 65
 afa:	0e 94 48 03 	call	0x690	; 0x690 <DIO_Writepin>
 afe:	6b e4       	ldi	r22, 0x4B	; 75
 b00:	8b e4       	ldi	r24, 0x4B	; 75
 b02:	0e 94 08 07 	call	0xe10	; 0xe10 <set_pwm>
 b06:	08 95       	ret

Disassembly of section .text.Move_Right_Turn:

00000b08 <Move_Right_Turn>:
 b08:	40 e0       	ldi	r20, 0x00	; 0
 b0a:	60 e0       	ldi	r22, 0x00	; 0
 b0c:	81 e4       	ldi	r24, 0x41	; 65
 b0e:	0e 94 48 03 	call	0x690	; 0x690 <DIO_Writepin>
 b12:	41 e0       	ldi	r20, 0x01	; 1
 b14:	61 e0       	ldi	r22, 0x01	; 1
 b16:	81 e4       	ldi	r24, 0x41	; 65
 b18:	0e 94 48 03 	call	0x690	; 0x690 <DIO_Writepin>
 b1c:	40 e0       	ldi	r20, 0x00	; 0
 b1e:	62 e0       	ldi	r22, 0x02	; 2
 b20:	81 e4       	ldi	r24, 0x41	; 65
 b22:	0e 94 48 03 	call	0x690	; 0x690 <DIO_Writepin>
 b26:	41 e0       	ldi	r20, 0x01	; 1
 b28:	63 e0       	ldi	r22, 0x03	; 3
 b2a:	81 e4       	ldi	r24, 0x41	; 65
 b2c:	0e 94 48 03 	call	0x690	; 0x690 <DIO_Writepin>
 b30:	41 e0       	ldi	r20, 0x01	; 1
 b32:	64 e0       	ldi	r22, 0x04	; 4
 b34:	81 e4       	ldi	r24, 0x41	; 65
 b36:	0e 94 48 03 	call	0x690	; 0x690 <DIO_Writepin>
 b3a:	40 e0       	ldi	r20, 0x00	; 0
 b3c:	65 e0       	ldi	r22, 0x05	; 5
 b3e:	81 e4       	ldi	r24, 0x41	; 65
 b40:	0e 94 48 03 	call	0x690	; 0x690 <DIO_Writepin>
 b44:	41 e0       	ldi	r20, 0x01	; 1
 b46:	66 e0       	ldi	r22, 0x06	; 6
 b48:	81 e4       	ldi	r24, 0x41	; 65
 b4a:	0e 94 48 03 	call	0x690	; 0x690 <DIO_Writepin>
 b4e:	40 e0       	ldi	r20, 0x00	; 0
 b50:	67 e0       	ldi	r22, 0x07	; 7
 b52:	81 e4       	ldi	r24, 0x41	; 65
 b54:	0e 94 48 03 	call	0x690	; 0x690 <DIO_Writepin>
 b58:	6b e4       	ldi	r22, 0x4B	; 75
 b5a:	8b e4       	ldi	r24, 0x4B	; 75
 b5c:	0e 94 08 07 	call	0xe10	; 0xe10 <set_pwm>
 b60:	08 95       	ret

Disassembly of section .text.Stop:

00000b62 <Stop>:
/* =========================================================
 * STOP
 * =========================================================*/
void Stop(void)
{
    DIO_Writepin('A', 0, 0);
 b62:	40 e0       	ldi	r20, 0x00	; 0
 b64:	60 e0       	ldi	r22, 0x00	; 0
 b66:	81 e4       	ldi	r24, 0x41	; 65
 b68:	0e 94 48 03 	call	0x690	; 0x690 <DIO_Writepin>
    DIO_Writepin('A', 1, 0);
 b6c:	40 e0       	ldi	r20, 0x00	; 0
 b6e:	61 e0       	ldi	r22, 0x01	; 1
 b70:	81 e4       	ldi	r24, 0x41	; 65
 b72:	0e 94 48 03 	call	0x690	; 0x690 <DIO_Writepin>
    DIO_Writepin('A', 2, 0);
 b76:	40 e0       	ldi	r20, 0x00	; 0
 b78:	62 e0       	ldi	r22, 0x02	; 2
 b7a:	81 e4       	ldi	r24, 0x41	; 65
 b7c:	0e 94 48 03 	call	0x690	; 0x690 <DIO_Writepin>
    DIO_Writepin('A', 3, 0);
 b80:	40 e0       	ldi	r20, 0x00	; 0
 b82:	63 e0       	ldi	r22, 0x03	; 3
 b84:	81 e4       	ldi	r24, 0x41	; 65
 b86:	0e 94 48 03 	call	0x690	; 0x690 <DIO_Writepin>
    DIO_Writepin('A', 4, 0);
 b8a:	40 e0       	ldi	r20, 0x00	; 0
 b8c:	64 e0       	ldi	r22, 0x04	; 4
 b8e:	81 e4       	ldi	r24, 0x41	; 65
 b90:	0e 94 48 03 	call	0x690	; 0x690 <DIO_Writepin>
    DIO_Writepin('A', 5, 0);
 b94:	40 e0       	ldi	r20, 0x00	; 0
 b96:	65 e0       	ldi	r22, 0x05	; 5
 b98:	81 e4       	ldi	r24, 0x41	; 65
 b9a:	0e 94 48 03 	call	0x690	; 0x690 <DIO_Writepin>
    DIO_Writepin('A', 6, 0);
 b9e:	40 e0       	ldi	r20, 0x00	; 0
 ba0:	66 e0       	ldi	r22, 0x06	; 6
 ba2:	81 e4       	ldi	r24, 0x41	; 65
 ba4:	0e 94 48 03 	call	0x690	; 0x690 <DIO_Writepin>
    DIO_Writepin('A', 7, 0);
 ba8:	40 e0       	ldi	r20, 0x00	; 0
 baa:	67 e0       	ldi	r22, 0x07	; 7
 bac:	81 e4       	ldi	r24, 0x41	; 65
 bae:	0e 94 48 03 	call	0x690	; 0x690 <DIO_Writepin>
    set_pwm(0, 0);
 bb2:	60 e0       	ldi	r22, 0x00	; 0
 bb4:	80 e0       	ldi	r24, 0x00	; 0
 bb6:	0e 94 08 07 	call	0xe10	; 0xe10 <set_pwm>
 bba:	08 95       	ret

Disassembly of section .text.Timer_wave_fastPWM:

00000d12 <Timer_wave_fastPWM>:
 d12:	97 b3       	in	r25, 0x17	; 23
 d14:	98 60       	ori	r25, 0x08	; 8
 d16:	97 bb       	out	0x17, r25	; 23
 d18:	93 b7       	in	r25, 0x33	; 51
 d1a:	90 64       	ori	r25, 0x40	; 64
 d1c:	93 bf       	out	0x33, r25	; 51
 d1e:	93 b7       	in	r25, 0x33	; 51
 d20:	98 60       	ori	r25, 0x08	; 8
 d22:	93 bf       	out	0x33, r25	; 51
 d24:	93 b7       	in	r25, 0x33	; 51
 d26:	91 60       	ori	r25, 0x01	; 1
 d28:	93 bf       	out	0x33, r25	; 51
 d2a:	93 b7       	in	r25, 0x33	; 51
 d2c:	94 60       	ori	r25, 0x04	; 4
 d2e:	93 bf       	out	0x33, r25	; 51
 d30:	93 b7       	in	r25, 0x33	; 51
 d32:	90 61       	ori	r25, 0x10	; 16
 d34:	93 bf       	out	0x33, r25	; 51
 d36:	93 b7       	in	r25, 0x33	; 51
 d38:	90 62       	ori	r25, 0x20	; 32
 d3a:	93 bf       	out	0x33, r25	; 51
 d3c:	80 95       	com	r24
 d3e:	8c bf       	out	0x3c, r24	; 60
 d40:	08 95       	ret

Disassembly of section .text.Timer2_wave_fastPWM:

00000cdc <Timer2_wave_fastPWM>:
 cdc:	91 b3       	in	r25, 0x11	; 17
 cde:	90 68       	ori	r25, 0x80	; 128
 ce0:	91 bb       	out	0x11, r25	; 17
 ce2:	95 b5       	in	r25, 0x25	; 37
 ce4:	90 64       	ori	r25, 0x40	; 64
 ce6:	95 bd       	out	0x25, r25	; 37
 ce8:	95 b5       	in	r25, 0x25	; 37
 cea:	98 60       	ori	r25, 0x08	; 8
 cec:	95 bd       	out	0x25, r25	; 37
 cee:	95 b5       	in	r25, 0x25	; 37
 cf0:	91 60       	ori	r25, 0x01	; 1
 cf2:	95 bd       	out	0x25, r25	; 37
 cf4:	95 b5       	in	r25, 0x25	; 37
 cf6:	92 60       	ori	r25, 0x02	; 2
 cf8:	95 bd       	out	0x25, r25	; 37
 cfa:	95 b5       	in	r25, 0x25	; 37
 cfc:	94 60       	ori	r25, 0x04	; 4
 cfe:	95 bd       	out	0x25, r25	; 37
 d00:	95 b5       	in	r25, 0x25	; 37
 d02:	90 61       	ori	r25, 0x10	; 16
 d04:	95 bd       	out	0x25, r25	; 37
 d06:	95 b5       	in	r25, 0x25	; 37
 d08:	90 62       	ori	r25, 0x20	; 32
 d0a:	95 bd       	out	0x25, r25	; 37
 d0c:	80 95       	com	r24
 d0e:	83 bd       	out	0x23, r24	; 35
 d10:	08 95       	ret

Disassembly of section .text.UART_Init:

00000c14 <UART_Init>:
 c14:	dc 01       	movw	r26, r24
 c16:	cb 01       	movw	r24, r22
 c18:	88 0f       	add	r24, r24
 c1a:	99 1f       	adc	r25, r25
 c1c:	aa 1f       	adc	r26, r26
 c1e:	bb 1f       	adc	r27, r27
 c20:	88 0f       	add	r24, r24
 c22:	99 1f       	adc	r25, r25
 c24:	aa 1f       	adc	r26, r26
 c26:	bb 1f       	adc	r27, r27
 c28:	9c 01       	movw	r18, r24
 c2a:	ad 01       	movw	r20, r26
 c2c:	22 0f       	add	r18, r18
 c2e:	33 1f       	adc	r19, r19
 c30:	44 1f       	adc	r20, r20
 c32:	55 1f       	adc	r21, r21
 c34:	60 e0       	ldi	r22, 0x00	; 0
 c36:	72 e1       	ldi	r23, 0x12	; 18
 c38:	8a e7       	ldi	r24, 0x7A	; 122
 c3a:	90 e0       	ldi	r25, 0x00	; 0
 c3c:	0e 94 2c 06 	call	0xc58	; 0xc58 <__udivmodsi4>
 c40:	21 50       	subi	r18, 0x01	; 1
 c42:	31 09       	sbc	r19, r1
 c44:	30 bd       	out	0x20, r19	; 32
 c46:	29 b9       	out	0x09, r18	; 9
 c48:	8b b1       	in	r24, 0x0b	; 11
 c4a:	82 60       	ori	r24, 0x02	; 2
 c4c:	8b b9       	out	0x0b, r24	; 11
 c4e:	88 e1       	ldi	r24, 0x18	; 24
 c50:	8a b9       	out	0x0a, r24	; 10
 c52:	86 e8       	ldi	r24, 0x86	; 134
 c54:	80 bd       	out	0x20, r24	; 32
 c56:	08 95       	ret

Disassembly of section .text.UART_Send_data:

00000e4e <UART_Send_data>:
 e4e:	5d 9b       	sbis	0x0b, 5	; 11
 e50:	fe cf       	rjmp	.-4      	; 0xe4e <UART_Send_data>
 e52:	8c b9       	out	0x0c, r24	; 12
 e54:	08 95       	ret

Disassembly of section .text.UART_Receive_data:

00000e56 <UART_Receive_data>:
 e56:	5f 9b       	sbis	0x0b, 7	; 11
 e58:	fe cf       	rjmp	.-4      	; 0xe56 <UART_Receive_data>
 e5a:	8c b1       	in	r24, 0x0c	; 12
 e5c:	08 95       	ret

Disassembly of section .text.UART_Send_string:

00000d42 <UART_Send_string>:
 d42:	cf 92       	push	r12
 d44:	df 92       	push	r13
 d46:	ef 92       	push	r14
 d48:	6b 01       	movw	r12, r22
 d4a:	e8 2e       	mov	r14, r24
 d4c:	06 c0       	rjmp	.+12     	; 0xd5a <UART_Send_string+0x18>
 d4e:	9f ef       	ldi	r25, 0xFF	; 255
 d50:	c9 1a       	sub	r12, r25
 d52:	d9 0a       	sbc	r13, r25
 d54:	e9 0a       	sbc	r14, r25
 d56:	0e 94 27 07 	call	0xe4e	; 0xe4e <UART_Send_data>
 d5a:	f6 01       	movw	r30, r12
 d5c:	84 91       	lpm	r24, Z
 d5e:	e7 fc       	sbrc	r14, 7
 d60:	80 81       	ld	r24, Z
 d62:	81 11       	cpse	r24, r1
 d64:	f4 cf       	rjmp	.-24     	; 0xd4e <UART_Send_string+0xc>
 d66:	ef 90       	pop	r14
 d68:	df 90       	pop	r13
 d6a:	cf 90       	pop	r12
 d6c:	08 95       	ret

Disassembly of section .text.libgcc.div:

00000c58 <__udivmodsi4>:
 c58:	a1 e2       	ldi	r26, 0x21	; 33
 c5a:	1a 2e       	mov	r1, r26
 c5c:	aa 1b       	sub	r26, r26
 c5e:	bb 1b       	sub	r27, r27
 c60:	fd 01       	movw	r30, r26
 c62:	0d c0       	rjmp	.+26     	; 0xc7e <__udivmodsi4_ep>

00000c64 <__udivmodsi4_loop>:
 c64:	aa 1f       	adc	r26, r26
 c66:	bb 1f       	adc	r27, r27
 c68:	ee 1f       	adc	r30, r30
 c6a:	ff 1f       	adc	r31, r31
 c6c:	a2 17       	cp	r26, r18
 c6e:	b3 07       	cpc	r27, r19
 c70:	e4 07       	cpc	r30, r20
 c72:	f5 07       	cpc	r31, r21
 c74:	20 f0       	brcs	.+8      	; 0xc7e <__udivmodsi4_ep>
 c76:	a2 1b       	sub	r26, r18
 c78:	b3 0b       	sbc	r27, r19
 c7a:	e4 0b       	sbc	r30, r20
 c7c:	f5 0b       	sbc	r31, r21

00000c7e <__udivmodsi4_ep>:
 c7e:	66 1f       	adc	r22, r22
 c80:	77 1f       	adc	r23, r23
 c82:	88 1f       	adc	r24, r24
 c84:	99 1f       	adc	r25, r25
 c86:	1a 94       	dec	r1
 c88:	69 f7       	brne	.-38     	; 0xc64 <__udivmodsi4_loop>
 c8a:	60 95       	com	r22
 c8c:	70 95       	com	r23
 c8e:	80 95       	com	r24
 c90:	90 95       	com	r25
 c92:	9b 01       	movw	r18, r22
 c94:	ac 01       	movw	r20, r24
 c96:	bd 01       	movw	r22, r26
 c98:	cf 01       	movw	r24, r30
 c9a:	08 95       	ret

Disassembly of section .text.libgcc:

00000e22 <__tablejump2__>:
 e22:	ee 0f       	add	r30, r30
 e24:	ff 1f       	adc	r31, r31
 e26:	05 90       	lpm	r0, Z+
 e28:	f4 91       	lpm	r31, Z
 e2a:	e0 2d       	mov	r30, r0
 e2c:	09 94       	ijmp

Disassembly of section .text.__dummy_fini:

00000e6c <_fini>:
 e6c:	08 95       	ret

Disassembly of section .text.__dummy_funcs_on_exit:

00000e6e <__funcs_on_exit>:
 e6e:	08 95       	ret

Disassembly of section .text.__dummy_simulator_exit:

00000e70 <__simulator_exit>:
 e70:	08 95       	ret

Disassembly of section .text.exit:

00000dfa <exit>:
 dfa:	ec 01       	movw	r28, r24
 dfc:	0e 94 37 07 	call	0xe6e	; 0xe6e <__funcs_on_exit>
 e00:	0e 94 36 07 	call	0xe6c	; 0xe6c <_fini>
 e04:	ce 01       	movw	r24, r28
 e06:	0e 94 38 07 	call	0xe70	; 0xe70 <__simulator_exit>
 e0a:	ce 01       	movw	r24, r28
 e0c:	0e 94 34 07 	call	0xe68	; 0xe68 <_Exit>

Disassembly of section .text._Exit:

00000e68 <_Exit>:
 e68:	0e 94 c1 00 	call	0x182	; 0x182 <_exit>
